(dp0
S'uvstates'
p1
(lp2
(lp3
F0.0
aF0.0
aa(lp4
F0.0
aF0.0
aa(lp5
F0.0
aF0.0
aa(lp6
F0.0
aF0.0
aa(lp7
F0.0
aF0.0
aa(lp8
F0.0
aF0.0
aa(lp9
F0.0
aF0.0
aasS'agents'
p10
(lp11
ccopy_reg
_reconstructor
p12
(cpyIA.agents
Robot
p13
c__builtin__
object
p14
Ntp15
Rp16
(dp17
S'radius'
p18
F0.3
sS'actions'
p19
(lp20
g12
(cpyIA.actions
Intend
p21
g14
Ntp22
Rp23
ag12
(cpyIA.actions
Say
p24
g14
Ntp25
Rp26
ag12
(cpyIA.actions
Nudge
p27
g14
Ntp28
Rp29
asbag12
(cpyIA.agents
Person
p30
g14
Ntp31
Rp32
(dp33
g18
F0.3
sg19
(lp34
sbag12
(g30
g14
Ntp35
Rp36
(dp37
g18
F0.3
sg19
(lp38
sbag12
(g30
g14
Ntp39
Rp40
(dp41
g18
F0.3
sg19
(lp42
sbag12
(g30
g14
Ntp43
Rp44
(dp45
g18
F0.3
sg19
(lp46
sbag12
(cpyIA.agents
ORCAAgent
p47
g14
Ntp48
Rp49
(dp50
g18
F0.3
sg19
(lp51
g12
(cpyIA.actions
RVOMove
p52
g14
Ntp53
Rp54
asbag12
(g47
g14
Ntp55
Rp56
(dp57
g18
F0.3
sg19
(lp58
g12
(g52
g14
Ntp59
Rp60
asbasS'innerstates'
p61
(lp62
g12
(cpyIA.agents
Innerstate
p63
g14
Ntp64
Rp65
(dp66
S'permissivity'
p67
F0.5
sS'patience'
p68
I1
sS'goal'
p69
(lp70
cnumpy.core.multiarray
scalar
p71
(cnumpy
dtype
p72
(S'f8'
p73
I0
I1
tp74
Rp75
(I3
S'<'
p76
NNNI-1
I-1
I0
tp77
bS'\xc40\xec9Z#\x11@'
p78
tp79
Rp80
ag71
(g75
S'\x80\xc5\xb7^-\xef%@'
p81
tp82
Rp83
asS'undertaking'
p84
Nsbag12
(g63
g14
Ntp85
Rp86
(dp87
g67
F0.5
sg68
I1
sg69
(lp88
g71
(g75
S'@\x0bq\xefO\x91\xd0\xbf'
p89
tp90
Rp91
ag71
(g75
S"\xd8a*\r\xbd('\xc0"
p92
tp93
Rp94
asg84
Nsbag12
(g63
g14
Ntp95
Rp96
(dp97
g67
F0.5
sg68
I1
sg69
(lp98
g71
(g75
S'X8P\xa6\x96\x01\x16\xc0'
p99
tp100
Rp101
ag71
(g75
S'\x18\rq\xa2\xe1\x00\x06@'
p102
tp103
Rp104
asg84
Nsbag12
(g63
g14
Ntp105
Rp106
(dp107
g67
F0.5
sg68
I1
sg69
(lp108
g71
(g75
S'X\xc9\x18\xaa\xae\xcf\x0f\xc0'
p109
tp110
Rp111
ag71
(g75
S'\x88\x87\x99\x8c\x19\xc4\x06@'
p112
tp113
Rp114
asg84
Nsbag12
(g63
g14
Ntp115
Rp116
(dp117
g67
F0.5
sg68
I1
sg69
(lp118
g71
(g75
S'\xf8\xb2\xd9\xa4\xe1\x03\r\xc0'
p119
tp120
Rp121
ag71
(g75
S'6>w\x05 \xe1$@'
p122
tp123
Rp124
asg84
Nsbag12
(g63
g14
Ntp125
Rp126
(dp127
g67
F0.0
sg68
I1
sg69
(lp128
g71
(g75
S'\xd0\xf3\x0cw)\xd7\x11@'
p129
tp130
Rp131
ag71
(g75
S'\x08\xd9\xcf\xa9\x84\xb0\x0f@'
p132
tp133
Rp134
asg84
Nsbag12
(g63
g14
Ntp135
Rp136
(dp137
g67
I-1
sg68
I1
sg69
(lp138
g71
(g75
S't\x9c\xb9$\x9b\x92\x13\xc0'
p139
tp140
Rp141
ag71
(g75
S',\xe9\x06&z\xa5\x03\xc0'
p142
tp143
Rp144
asg84
NsbasS'xystates'
p145
(lp146
(lp147
g71
(g75
S'\xbcS\x9c\xee,\xdb\x11@'
p148
tp149
Rp150
ag71
(g75
S'\xcc\x07\xa6(\xae\xa6\x02\xc0'
p151
tp152
Rp153
aa(lp154
g71
(g75
S'\x00C\x9e%z\xa2\xd4\xbf'
p155
tp156
Rp157
ag71
(g75
S'\x00\x80\xc3\xf0\xb8\xdf\xe2?'
p158
tp159
Rp160
aa(lp161
g71
(g75
S'\x1c\xfb;\xb1\xfa\x9f\x15\xc0'
p162
tp163
Rp164
ag71
(g75
S' \xbf\xe5\x14\x97\xfc\x04@'
p165
tp166
Rp167
aa(lp168
g71
(g75
S'du\x83\xed\x85\x8a\x10\xc0'
p169
tp170
Rp171
ag71
(g75
S'\x90\xe0\xd3E\xf4A\x06@'
p172
tp173
Rp174
aa(lp175
g71
(g75
S'\xf0\x00e2,\x08\x0e\xc0'
p176
tp177
Rp178
ag71
(g75
S'P0d\xa3\x00S%@'
p179
tp180
Rp181
aa(lp182
g71
(g75
S'\x0c\xc30\xa85Z\x13@'
p183
tp184
Rp185
ag71
(g75
S'\xcc~\xac\\\xb7\xa8\x11@'
p186
tp187
Rp188
aa(lp189
g71
(g75
S'\xf8\xc8V\x81\x88Q\x13\xc0'
p190
tp191
Rp192
ag71
(g75
S'\xac\xbci\xc9\x8c\xe6\x03\xc0'
p193
tp194
Rp195
aas.