(dp0
S'uvstates'
p1
(lp2
(lp3
F0.0
aF0.0
aa(lp4
F0.0
aF0.0
aa(lp5
F0.0
aF0.0
aa(lp6
F0.0
aF0.0
aa(lp7
F0.0
aF0.0
aa(lp8
F0.0
aF0.0
aa(lp9
F0.0
aF0.0
aa(lp10
F0.0
aF0.0
aa(lp11
F0.0
aF0.0
aa(lp12
F0.0
aF0.0
aasS'agents'
p13
(lp14
ccopy_reg
_reconstructor
p15
(cpyIA.agents
Robot
p16
c__builtin__
object
p17
Ntp18
Rp19
(dp20
S'radius'
p21
F0.3
sS'actions'
p22
(lp23
g15
(cpyIA.actions
Intend
p24
g17
Ntp25
Rp26
ag15
(cpyIA.actions
Say
p27
g17
Ntp28
Rp29
ag15
(cpyIA.actions
Nudge
p30
g17
Ntp31
Rp32
asbag15
(cpyIA.agents
Person
p33
g17
Ntp34
Rp35
(dp36
g21
F0.3
sg22
(lp37
sbag15
(g33
g17
Ntp38
Rp39
(dp40
g21
F0.3
sg22
(lp41
sbag15
(g33
g17
Ntp42
Rp43
(dp44
g21
F0.3
sg22
(lp45
sbag15
(g33
g17
Ntp46
Rp47
(dp48
g21
F0.3
sg22
(lp49
sbag15
(g33
g17
Ntp50
Rp51
(dp52
g21
F0.3
sg22
(lp53
sbag15
(g33
g17
Ntp54
Rp55
(dp56
g21
F0.3
sg22
(lp57
sbag15
(g33
g17
Ntp58
Rp59
(dp60
g21
F0.3
sg22
(lp61
sbag15
(g33
g17
Ntp62
Rp63
(dp64
g21
F0.3
sg22
(lp65
sbag15
(g33
g17
Ntp66
Rp67
(dp68
g21
F0.3
sg22
(lp69
sbasS'innerstates'
p70
(lp71
g15
(cpyIA.agents
Innerstate
p72
g17
Ntp73
Rp74
(dp75
S'permissivity'
p76
F1.0
sS'patience'
p77
I1
sS'goal'
p78
(lp79
cnumpy.core.multiarray
scalar
p80
(cnumpy
dtype
p81
(S'f8'
p82
I0
I1
tp83
Rp84
(I3
S'<'
p85
NNNI-1
I-1
I0
tp86
bS'\xf4\xfaNoJH\x14@'
p87
tp88
Rp89
ag80
(g84
S'\xe0v=]\xa8\xfb\x13@'
p90
tp91
Rp92
asS'undertaking'
p93
Nsbag15
(g72
g17
Ntp94
Rp95
(dp96
g76
F0.75
sg77
I1
sg78
(lp97
g80
(g84
S'\x9c\xc4\xea\x05\xdby\x11@'
p98
tp99
Rp100
ag80
(g84
S'\xc5\x05\x10\xb3\xc8\x9a!\xc0'
p101
tp102
Rp103
asg93
Nsbag15
(g72
g17
Ntp104
Rp105
(dp106
g76
F0.75
sg77
I1
sg78
(lp107
g80
(g84
S'\xb4\xfb\x82+\xd0\xb9\x18@'
p108
tp109
Rp110
ag80
(g84
S'\xbc\xf8\xdd%Q<$\xc0'
p111
tp112
Rp113
asg93
Nsbag15
(g72
g17
Ntp114
Rp115
(dp116
g76
F0.75
sg77
I1
sg78
(lp117
g80
(g84
S'Dzx\x82H_%\xc0'
p118
tp119
Rp120
ag80
(g84
S'\x80Ws\x9c\x18\xce\x0b@'
p121
tp122
Rp123
asg93
Nsbag15
(g72
g17
Ntp124
Rp125
(dp126
g76
F0.75
sg77
I1
sg78
(lp127
g80
(g84
S'<mF\xf5\xd0\x00(\xc0'
p128
tp129
Rp130
ag80
(g84
S'\xa4\x9fH\xec{\x16\x16@'
p131
tp132
Rp133
asg93
Nsbag15
(g72
g17
Ntp134
Rp135
(dp136
g76
F0.75
sg77
I1
sg78
(lp137
g80
(g84
S'|\xa2\\\xc4\xf7$$\xc0'
p138
tp139
Rp140
ag80
(g84
S'\xd8Nf\x8aZR\x16@'
p141
tp142
Rp143
asg93
Nsbag15
(g72
g17
Ntp144
Rp145
(dp146
g76
F0.75
sg77
I1
sg78
(lp147
g80
(g84
S'4f\xaf\xc9\x1d\x02\x11@'
p148
tp149
Rp150
ag80
(g84
S"\xe4\x9a\xc96\xb8\x19'\xc0"
p151
tp152
Rp153
asg93
Nsbag15
(g72
g17
Ntp154
Rp155
(dp156
g76
F0.75
sg77
I1
sg78
(lp157
g80
(g84
S'\xfc\x8e\xbaX\xf1\x1c\x13@'
p158
tp159
Rp160
ag80
(g84
S'Pu\x18HY\x0c\x17\xc0'
p161
tp162
Rp163
asg93
Nsbag15
(g72
g17
Ntp164
Rp165
(dp166
g76
F0.75
sg77
I1
sg78
(lp167
g80
(g84
S'\\Y\x8a\xab\x07\xc0\x14@'
p168
tp169
Rp170
ag80
(g84
S'@aN\x90\x901\x0e\xc0'
p171
tp172
Rp173
asg93
Nsbag15
(g72
g17
Ntp174
Rp175
(dp176
g76
F0.75
sg77
I1
sg78
(lp177
g80
(g84
S'\xc4\x15\xe7E\xbfv\x13@'
p178
tp179
Rp180
ag80
(g84
S'\xf0w\x0b?b\xe3\xf0\xbf'
p181
tp182
Rp183
asg93
NsbasS'xystates'
p184
(lp185
(lp186
g80
(g84
S'\x00\x1a\x12\xc5\x8a\xda\x18\xc0'
p187
tp188
Rp189
ag80
(g84
S'\xe6\x7f$\xf1\xe1\xce&\xc0'
p190
tp191
Rp192
aa(lp193
g80
(g84
S'J\x0e\xe4k\xef3$\xc0'
p194
tp195
Rp196
ag80
(g84
S'\x08\xfe\x83(9\x8e\x16@'
p197
tp198
Rp199
aa(lp200
g80
(g84
S'x\x0e\xf1\xdaPP%\xc0'
p201
tp202
Rp203
ag80
(g84
S'\xb8\x06\x91:\xf7\t\x0c@'
p204
tp205
Rp206
aa(lp207
g80
(g84
S'\xc4\x81{\\\x18\xa2\x14@'
p208
tp209
Rp210
ag80
(g84
S'\xdc\x02\x13T\xd3\xb9\r\xc0'
p211
tp212
Rp213
aa(lp214
g80
(g84
S'\xfc\x8e\xbaX\xf1\x1c\x13@'
p215
tp216
Rp217
ag80
(g84
S'\x1e\xc6\xfa\xa9z\xd0\x16\xc0'
p218
tp219
Rp220
aa(lp221
g80
(g84
S'\xc4\x15\xe7E\xbfv\x13@'
p222
tp223
Rp224
ag80
(g84
S'\xb0\xfc;\x9c\xda\x08\xee\xbf'
p225
tp226
Rp227
aa(lp228
g80
(g84
S'<mF\xf5\xd0\x00(\xc0'
p229
tp230
Rp231
ag80
(g84
S'\xa4\x9fH\xec{\x16\x16@'
p232
tp233
Rp234
aa(lp235
g80
(g84
S'4f\xaf\xc9\x1d\x02\x11@'
p236
tp237
Rp238
ag80
(g84
S"\xb1\x06Q\xde\xaf('\xc0"
p239
tp240
Rp241
aa(lp242
g80
(g84
S'\x84Le\x8d\xf1}\x18@'
p243
tp244
Rp245
ag80
(g84
S'\xef\x8cV~Y-$\xc0'
p246
tp247
Rp248
aa(lp249
g80
(g84
S'\x04\xed\xdb\xb6\xeb[\x11@'
p250
tp251
Rp252
ag80
(g84
S'\xc5\x05\x10\xb3\xc8\x9a!\xc0'
p253
tp254
Rp255
aas.