(dp0
S'uvstates'
p1
(lp2
(lp3
F0.0
aF0.0
aa(lp4
F0.0
aF0.0
aa(lp5
F0.0
aF0.0
aa(lp6
F0.0
aF0.0
aasS'agents'
p7
(lp8
ccopy_reg
_reconstructor
p9
(cpyIA.agents
Robot
p10
c__builtin__
object
p11
Ntp12
Rp13
(dp14
S'radius'
p15
F0.3
sS'actions'
p16
(lp17
g9
(cpyIA.actions
Intend
p18
g11
Ntp19
Rp20
ag9
(cpyIA.actions
Say
p21
g11
Ntp22
Rp23
ag9
(cpyIA.actions
Crawl
p24
g11
Ntp25
Rp26
ag9
(cpyIA.actions
Nudge
p27
g11
Ntp28
Rp29
asbag9
(cpyIA.agents
Person
p30
g11
Ntp31
Rp32
(dp33
g15
F0.3
sg16
(lp34
sbag9
(g30
g11
Ntp35
Rp36
(dp37
g15
F0.3
sg16
(lp38
sbag9
(g30
g11
Ntp39
Rp40
(dp41
g15
F0.3
sg16
(lp42
sbasS'innerstates'
p43
(lp44
g9
(cpyIA.agents
Innerstate
p45
g11
Ntp46
Rp47
(dp48
S'permissivity'
p49
F0.5
sS'patience'
p50
I1
sS'goal'
p51
(lp52
cnumpy.core.multiarray
scalar
p53
(cnumpy
dtype
p54
(S'f8'
p55
I0
I1
tp56
Rp57
(I3
S'<'
p58
NNNI-1
I-1
I0
tp59
bS'P\xcf\xf31\xa8H\xff\xbf'
p60
tp61
Rp62
ag53
(g57
S'\x14_Qx\xfa\xf8&\xc0'
p63
tp64
Rp65
asS'undertaking'
p66
Nsbag9
(g45
g11
Ntp67
Rp68
(dp69
g49
F0.5
sg50
I1
sg51
(lp70
g53
(g57
S'\xdcR\x1a_\xe5\xcb\x19\xc0'
p71
tp72
Rp73
ag53
(g57
S'B\xad\n\xf4Sk\x19\xc0'
p74
tp75
Rp76
asg66
Nsbag9
(g45
g11
Ntp77
Rp78
(dp79
g49
F0.5
sg50
I1
sg51
(lp80
g53
(g57
S'0\xce\xc6H\xe52\xf1?'
p81
tp82
Rp83
ag53
(g57
S'\x1e\x02:\xd3$\xcb\x11\xc0'
p84
tp85
Rp86
asg66
Nsbag9
(g45
g11
Ntp87
Rp88
(dp89
g49
F0.5
sg50
I1
sg51
(lp90
g53
(g57
S'\x00\xf9\x101\x034\x1a\xc0'
p91
tp92
Rp93
ag53
(g57
S'>3\xefb\x13\x0c\x15\xc0'
p94
tp95
Rp96
asg66
NsbasS'xystates'
p97
(lp98
(lp99
g53
(g57
S'X\x1e\xde,\r\xd9\x16\xc0'
p100
tp101
Rp102
ag53
(g57
S'@\xc6\xeaD\xbd\xb5\xe2\xbf'
p103
tp104
Rp105
aa(lp106
g53
(g57
S'h\xfc\x97\xd3\xec\xe5\x19\xc0'
p107
tp108
Rp109
ag53
(g57
S'B\xad\n\xf4Sk\x19\xc0'
p110
tp111
Rp112
aa(lp113
g53
(g57
S'0\xce\xc6H\xe52\xf1?'
p114
tp115
Rp116
ag53
(g57
S'\x1e\x02:\xd3$\xcb\x11\xc0'
p117
tp118
Rp119
aa(lp120
g53
(g57
S'\x8c\xa2\x8e\xa5\nN\x1a\xc0'
p121
tp122
Rp123
ag53
(g57
S'>3\xefb\x13\x0c\x15\xc0'
p124
tp125
Rp126
aas.