(dp0
S'uvstates'
p1
(lp2
(lp3
F0.0
aF0.0
aa(lp4
F0.0
aF0.0
aa(lp5
F0.0
aF0.0
aa(lp6
F0.0
aF0.0
aa(lp7
F0.0
aF0.0
aa(lp8
F0.0
aF0.0
aa(lp9
F0.0
aF0.0
aa(lp10
F0.0
aF0.0
aa(lp11
F0.0
aF0.0
aa(lp12
F0.0
aF0.0
aa(lp13
F0.0
aF0.0
aa(lp14
F0.0
aF0.0
aa(lp15
F0.0
aF0.0
aa(lp16
F0.0
aF0.0
aa(lp17
F0.0
aF0.0
aa(lp18
F0.0
aF0.0
aasS'agents'
p19
(lp20
ccopy_reg
_reconstructor
p21
(cpyIA.agents
Robot
p22
c__builtin__
object
p23
Ntp24
Rp25
(dp26
S'radius'
p27
F0.3
sS'actions'
p28
(lp29
g21
(cpyIA.actions
Intend
p30
g23
Ntp31
Rp32
ag21
(cpyIA.actions
Say
p33
g23
Ntp34
Rp35
ag21
(cpyIA.actions
Nudge
p36
g23
Ntp37
Rp38
asbag21
(cpyIA.agents
Person
p39
g23
Ntp40
Rp41
(dp42
g27
F0.3
sg28
(lp43
sbag21
(g39
g23
Ntp44
Rp45
(dp46
g27
F0.3
sg28
(lp47
sbag21
(g39
g23
Ntp48
Rp49
(dp50
g27
F0.3
sg28
(lp51
sbag21
(g39
g23
Ntp52
Rp53
(dp54
g27
F0.3
sg28
(lp55
sbag21
(g39
g23
Ntp56
Rp57
(dp58
g27
F0.3
sg28
(lp59
sbag21
(g39
g23
Ntp60
Rp61
(dp62
g27
F0.3
sg28
(lp63
sbag21
(g39
g23
Ntp64
Rp65
(dp66
g27
F0.3
sg28
(lp67
sbag21
(g39
g23
Ntp68
Rp69
(dp70
g27
F0.3
sg28
(lp71
sbag21
(g39
g23
Ntp72
Rp73
(dp74
g27
F0.3
sg28
(lp75
sbag21
(g39
g23
Ntp76
Rp77
(dp78
g27
F0.3
sg28
(lp79
sbag21
(g39
g23
Ntp80
Rp81
(dp82
g27
F0.3
sg28
(lp83
sbag21
(g39
g23
Ntp84
Rp85
(dp86
g27
F0.3
sg28
(lp87
sbag21
(g39
g23
Ntp88
Rp89
(dp90
g27
F0.3
sg28
(lp91
sbag21
(g39
g23
Ntp92
Rp93
(dp94
g27
F0.3
sg28
(lp95
sbag21
(g39
g23
Ntp96
Rp97
(dp98
g27
F0.3
sg28
(lp99
sbasS'innerstates'
p100
(lp101
g21
(cpyIA.agents
Innerstate
p102
g23
Ntp103
Rp104
(dp105
S'permissivity'
p106
F0.5
sS'patience'
p107
I1
sS'perceptivity'
p108
F0.9
sS'goal'
p109
(lp110
cnumpy.core.multiarray
scalar
p111
(cnumpy
dtype
p112
(S'f8'
p113
I0
I1
tp114
Rp115
(I3
S'<'
p116
NNNI-1
I-1
I0
tp117
bS'\xf2[\ri>^8\xc0'
p118
tp119
Rp120
ag111
(g115
S' m/E\xbf\xd7\t@'
p121
tp122
Rp123
asS'undertaking'
p124
Nsbag21
(g102
g23
Ntp125
Rp126
(dp127
g106
F0.5
sg107
I1
sg108
F0.9
sg109
(lp128
g111
(g115
S'a\xe3\r\x10\x82\xce6\xc0'
p129
tp130
Rp131
ag111
(g115
S'\x80X\n\x16\xdd\xc1\x00\xc0'
p132
tp133
Rp134
asg124
Nsbag21
(g102
g23
Ntp135
Rp136
(dp137
g106
F0.5
sg107
I1
sg108
F0.9
sg109
(lp138
g111
(g115
S'@.\xb2_\x03?6\xc0'
p139
tp140
Rp141
ag111
(g115
S"\x80's\x96\xdbe\x01\xc0"
p142
tp143
Rp144
asg124
Nsbag21
(g102
g23
Ntp145
Rp146
(dp147
g106
F0.5
sg107
I1
sg108
F0.9
sg109
(lp148
g111
(g115
S'P\xd2B\xf7\xc4\x905\xc0'
p149
tp150
Rp151
ag111
(g115
S'\xf0\xc0\x87%\xd2C\xf7\xbf'
p152
tp153
Rp154
asg124
Nsbag21
(g102
g23
Ntp155
Rp156
(dp157
g106
F0.5
sg107
I1
sg108
F0.9
sg109
(lp158
g111
(g115
S'@.\xb2_\x03?6\xc0'
p159
tp160
Rp161
ag111
(g115
S'\xf0\xe6\x12#\xdbk\xf3\xbf'
p162
tp163
Rp164
asg124
Nsbag21
(g102
g23
Ntp165
Rp166
(dp167
g106
F0.5
sg107
I1
sg108
F0.9
sg109
(lp168
g111
(g115
S'\xc1dO \x0157\xc0'
p169
tp170
Rp171
ag111
(g115
S'\xf0SM\xa4\xd6W\xf5\xbf'
p172
tp173
Rp174
asg124
Nsbag21
(g102
g23
Ntp175
Rp176
(dp177
g106
F0.5
sg107
I1
sg108
F0.9
sg109
(lp178
g111
(g115
S'\x8f\xcf\xbf\xd6\xc6\xc34\xc0'
p179
tp180
Rp181
ag111
(g115
S'\xf0\xdb\x06\xa1\xe27\xf0\xbf'
p182
tp183
Rp184
asg124
Nsbag21
(g102
g23
Ntp185
Rp186
(dp187
g106
F0.5
sg107
I1
sg108
F0.9
sg109
(lp188
g111
(g115
S"p\xb85'E|5\xc0"
p189
tp190
Rp191
ag111
(g115
S'\xc0\xaf\xe7i\xea\xdf\xd7\xbf'
p192
tp193
Rp194
asg124
Nsbag21
(g102
g23
Ntp195
Rp196
(dp197
g106
F0.5
sg107
I1
sg108
F0.9
sg109
(lp198
g111
(g115
S'!H\xbf/\x83S6\xc0'
p199
tp200
Rp201
ag111
(g115
S'\x80sDh\xf0O\xd5\xbf'
p202
tp203
Rp204
asg124
Nsbag21
(g102
g23
Ntp205
Rp206
(dp207
g106
F0.5
sg107
I1
sg108
F0.9
sg109
(lp208
g111
(g115
S'\xe1JBP\x81 7\xc0'
p209
tp210
Rp211
ag111
(g115
S'\xe0\xed\x0b9\xe6W\xe2\xbf'
p212
tp213
Rp214
asg124
Nsbag21
(g102
g23
Ntp215
Rp216
(dp217
g106
F0.5
sg107
I1
sg108
F0.9
sg109
(lp218
g111
(g115
S'\x92\xda\xcbX\xbf\xf77\xc0'
p219
tp220
Rp221
ag111
(g115
S'\xe0\x03$=\xd7\xbf\xe8\xbf'
p222
tp223
Rp224
asg124
Nsbag21
(g102
g23
Ntp225
Rp226
(dp227
g106
F0.5
sg107
I1
sg108
F0.9
sg109
(lp228
g111
(g115
S'\x81\xc9\x00@\x02\xba6\xc0'
p229
tp230
Rp231
ag111
(g115
S'\x80\x10L\xb0\xb5\x1f\xd1?'
p232
tp233
Rp234
asg124
Nsbag21
(g102
g23
Ntp235
Rp236
(dp237
g106
F0.5
sg107
I1
sg108
F0.9
sg109
(lp238
F0.0
aF0.0
asg124
Nsbag21
(g102
g23
Ntp239
Rp240
(dp241
g106
F0.5
sg107
I1
sg108
F0.9
sg109
(lp242
g111
(g115
S'\x93\xa94\xd9\xbd\x9b8\xc0'
p243
tp244
Rp245
ag111
(g115
S'\x00pRe\x0b\x04\x8a\xbf'
p246
tp247
Rp248
asg124
Nsbag21
(g102
g23
Ntp249
Rp250
(dp251
g106
F0.5
sg107
I1
sg108
F0.9
sg109
(lp252
g111
(g115
S'\x13\x11i\x19\xbd\xed8\xc0'
p253
tp254
Rp255
ag111
(g115
S'\xe0)\xaf:\xe0\xe7\xe4\xbf'
p256
tp257
Rp258
asg124
Nsbag21
(g102
g23
Ntp259
Rp260
(dp261
g106
F0.5
sg107
I1
sg108
F0.9
sg109
(lp262
g111
(g115
S'r\xf4\xd8(?\x0c8\xc0'
p263
tp264
Rp265
ag111
(g115
S'\xf0^Y&\xcf\x8b\xf8\xbf'
p266
tp267
Rp268
asg124
NsbasS'xystates'
p269
(lp270
(lp271
g111
(g115
S'\x90\x9e(W\xc5g5\xc0'
p272
tp273
Rp274
ag111
(g115
S'H\xe0\xee\x8f\xdc\x10\x10\xc0'
p275
tp276
Rp277
aa(lp278
g111
(g115
S'1\x8a!\xc8A\xed6\xc0'
p279
tp280
Rp281
ag111
(g115
S'\x00\xc0>V\xdc\x13\x01\xc0'
p282
tp283
Rp284
aa(lp285
g111
(g115
S'@.\xb2_\x03?6\xc0'
p286
tp287
Rp288
ag111
(g115
S'\x00D\xda\xaa\xbe\x97\xff\xbf'
p289
tp290
Rp291
aa(lp292
g111
(g115
S'0\xecO\xc7D\xa55\xc0'
p293
tp294
Rp295
ag111
(g115
S"\x00\xfd*'\xcc\xd3\xf9\xbf"
p296
tp297
Rp298
aa(lp299
g111
(g115
S'@.\xb2_\x03?6\xc0'
p300
tp301
Rp302
ag111
(g115
S'\xf0\xe6\x12#\xdbk\xf3\xbf'
p303
tp304
Rp305
aa(lp306
g111
(g115
S'\xc1dO \x0157\xc0'
p307
tp308
Rp309
ag111
(g115
S'\xf0SM\xa4\xd6W\xf5\xbf'
p310
tp311
Rp312
aa(lp313
g111
(g115
S'o\xe9\xcc\xa6F\xd84\xc0'
p314
tp315
Rp316
ag111
(g115
S'\xf0y\xd8\xa1\xdf\x7f\xf1\xbf'
p317
tp318
Rp319
aa(lp320
g111
(g115
S"p\xb85'E|5\xc0"
p321
tp322
Rp323
ag111
(g115
S'\xc0\xaf\xe7i\xea\xdf\xd7\xbf'
p324
tp325
Rp326
aa(lp327
g111
(g115
S'!H\xbf/\x83S6\xc0'
p328
tp329
Rp330
ag111
(g115
S'\x80sDh\xf0O\xd5\xbf'
p331
tp332
Rp333
aa(lp334
g111
(g115
S'\xe1JBP\x81 7\xc0'
p335
tp336
Rp337
ag111
(g115
S'\xe0\xed\x0b9\xe6W\xe2\xbf'
p338
tp339
Rp340
aa(lp341
g111
(g115
S'r\xf4\xd8(?\x0c8\xc0'
p342
tp343
Rp344
ag111
(g115
S'\xe0\xa1\xf5=\xd4\x07\xea\xbf'
p345
tp346
Rp347
aa(lp348
g111
(g115
S'\x81\xc9\x00@\x02\xba6\xc0'
p349
tp350
Rp351
ag111
(g115
S'\x80\x10L\xb0\xb5\x1f\xd1?'
p352
tp353
Rp354
aa(lp355
g111
(g115
S'\x02\x00\x9e\x00\x00\xb07\xc0'
p356
tp357
Rp358
ag111
(g115
S'\x00\xa9Q]w\x1f\xcd?'
p359
tp360
Rp361
aa(lp362
g111
(g115
S"\xb2\x8f'\t>\x878\xc0"
p363
tp364
Rp365
ag111
(g115
S'\x00pRe\x0b\x04\x8a\xbf'
p366
tp367
Rp368
aa(lp369
g111
(g115
S'\x13\x11i\x19\xbd\xed8\xc0'
p370
tp371
Rp372
ag111
(g115
S'\xe0)\xaf:\xe0\xe7\xe4\xbf'
p373
tp374
Rp375
aa(lp376
g111
(g115
S'r\xf4\xd8(?\x0c8\xc0'
p377
tp378
Rp379
ag111
(g115
S'\xf0^Y&\xcf\x8b\xf8\xbf'
p380
tp381
Rp382
aas.