(dp0
S'uvstates'
p1
(lp2
(lp3
F0.0
aF0.0
aa(lp4
F0.0
aF0.0
aa(lp5
F0.0
aF0.0
aa(lp6
F0.0
aF0.0
aa(lp7
F0.0
aF0.0
aa(lp8
F0.0
aF0.0
aa(lp9
F0.0
aF0.0
aa(lp10
F0.0
aF0.0
aa(lp11
F0.0
aF0.0
aa(lp12
F0.0
aF0.0
aa(lp13
F0.0
aF0.0
aa(lp14
F0.0
aF0.0
aa(lp15
F0.0
aF0.0
aa(lp16
F0.0
aF0.0
aa(lp17
F0.0
aF0.0
aa(lp18
F0.0
aF0.0
aa(lp19
F0.0
aF0.0
aa(lp20
F0.0
aF0.0
aa(lp21
F0.0
aF0.0
aa(lp22
F0.0
aF0.0
aasS'agents'
p23
(lp24
ccopy_reg
_reconstructor
p25
(cpyIA.agents
Robot
p26
c__builtin__
object
p27
Ntp28
Rp29
(dp30
S'radius'
p31
F0.3
sS'actions'
p32
(lp33
g25
(cpyIA.actions
Intend
p34
g27
Ntp35
Rp36
ag25
(cpyIA.actions
Say
p37
g27
Ntp38
Rp39
ag25
(cpyIA.actions
Nudge
p40
g27
Ntp41
Rp42
asbag25
(cpyIA.agents
Person
p43
g27
Ntp44
Rp45
(dp46
g31
F0.3
sg32
(lp47
sbag25
(g43
g27
Ntp48
Rp49
(dp50
g31
F0.3
sg32
(lp51
sbag25
(g43
g27
Ntp52
Rp53
(dp54
g31
F0.3
sg32
(lp55
sbag25
(g43
g27
Ntp56
Rp57
(dp58
g31
F0.3
sg32
(lp59
sbag25
(g43
g27
Ntp60
Rp61
(dp62
g31
F0.3
sg32
(lp63
sbag25
(g43
g27
Ntp64
Rp65
(dp66
g31
F0.3
sg32
(lp67
sbag25
(g43
g27
Ntp68
Rp69
(dp70
g31
F0.3
sg32
(lp71
sbag25
(g43
g27
Ntp72
Rp73
(dp74
g31
F0.3
sg32
(lp75
sbag25
(g43
g27
Ntp76
Rp77
(dp78
g31
F0.3
sg32
(lp79
sbag25
(g43
g27
Ntp80
Rp81
(dp82
g31
F0.3
sg32
(lp83
sbag25
(g43
g27
Ntp84
Rp85
(dp86
g31
F0.3
sg32
(lp87
sbag25
(g43
g27
Ntp88
Rp89
(dp90
g31
F0.3
sg32
(lp91
sbag25
(g43
g27
Ntp92
Rp93
(dp94
g31
F0.3
sg32
(lp95
sbag25
(g43
g27
Ntp96
Rp97
(dp98
g31
F0.3
sg32
(lp99
sbag25
(g43
g27
Ntp100
Rp101
(dp102
g31
F0.3
sg32
(lp103
sbag25
(g43
g27
Ntp104
Rp105
(dp106
g31
F0.3
sg32
(lp107
sbag25
(g43
g27
Ntp108
Rp109
(dp110
g31
F0.3
sg32
(lp111
sbag25
(g43
g27
Ntp112
Rp113
(dp114
g31
F0.3
sg32
(lp115
sbag25
(g43
g27
Ntp116
Rp117
(dp118
g31
F0.3
sg32
(lp119
sbasS'innerstates'
p120
(lp121
g25
(cpyIA.agents
Innerstate
p122
g27
Ntp123
Rp124
(dp125
S'permissivity'
p126
F1.0
sS'patience'
p127
I1
sS'goal'
p128
(lp129
cnumpy.core.multiarray
scalar
p130
(cnumpy
dtype
p131
(S'f8'
p132
I0
I1
tp133
Rp134
(I3
S'<'
p135
NNNI-1
I-1
I0
tp136
bS'\xb8R9\x95i\xab\x14@'
p137
tp138
Rp139
ag130
(g134
S'\xc4N\xcb\x8b\xf3\xf1\x14@'
p140
tp141
Rp142
asS'undertaking'
p143
Nsbag25
(g122
g27
Ntp144
Rp145
(dp146
g126
F0.75
sg127
I1
sg128
(lp147
g130
(g134
S'\xa6\xe4\xe6\x01\xd1\xe9&\xc0'
p148
tp149
Rp150
ag130
(g134
S'\x14\x8a\x15\x03\x9fH\x17@'
p151
tp152
Rp153
asg143
Nsbag25
(g122
g27
Ntp154
Rp155
(dp156
g126
F0.5
sg127
I1
sg128
(lp157
g130
(g134
S'\xc4\x10\xc2\xa2f\x11\x18\xc0'
p158
tp159
Rp160
ag130
(g134
S'6Il\xde\xb4\xbd\x1a\xc0'
p161
tp162
Rp163
asg143
Nsbag25
(g122
g27
Ntp164
Rp165
(dp166
g126
F0.75
sg127
I1
sg128
(lp167
g130
(g134
S'\xc0f\xa1\x90\\\xd3\xf2?'
p168
tp169
Rp170
ag130
(g134
S'\xb0\x95\xba\x84\x19\xf6\xf5?'
p171
tp172
Rp173
asg143
Nsbag25
(g122
g27
Ntp174
Rp175
(dp176
g126
F0.75
sg127
I1
sg128
(lp177
g130
(g134
S'\x00\xb3\x8e4\x98\xa3\xf3?'
p178
tp179
Rp180
ag130
(g134
S'\xc0tB\x08\xd6\x07\xea\xbf'
p181
tp182
Rp183
asg143
Nsbag25
(g122
g27
Ntp184
Rp185
(dp186
g126
F0.75
sg127
I1
sg128
(lp187
g130
(g134
S'~\xc4\xd4\x9er""\xc0'
p188
tp189
Rp190
ag130
(g134
S'\x90\xcf\xf4a\x07\xb5\x18@'
p191
tp192
Rp193
asg143
Nsbag25
(g122
g27
Ntp194
Rp195
(dp196
g126
F0.75
sg127
I1
sg128
(lp197
g130
(g134
S'\xaaY(D\x00\x11$\xc0'
p198
tp199
Rp200
ag130
(g134
S'0\x7f\xb8\xaaJH\r@'
p201
tp202
Rp203
asg143
Nsbag25
(g122
g27
Ntp204
Rp205
(dp206
g126
F0.75
sg127
I1
sg128
(lp207
g130
(g134
S'\xc4+\x19\xed7\x80\x10@'
p208
tp209
Rp210
ag130
(g134
S'Nh\xe1\xd7\x80\x9f&\xc0'
p211
tp212
Rp213
asg143
Nsbag25
(g122
g27
Ntp214
Rp215
(dp216
g126
F0.75
sg127
I1
sg128
(lp217
g130
(g134
S'\xa6\xe4\xe6\x01\xd1\xe9&\xc0'
p218
tp219
Rp220
ag130
(g134
S'\xc8v\x17]\x08}!\xc0'
p221
tp222
Rp223
asg143
Nsbag25
(g122
g27
Ntp224
Rp225
(dp226
g126
F0.75
sg127
I1
sg128
(lp227
g130
(g134
S'P\xc9\xcd\x83\xc0X\x19@'
p228
tp229
Rp230
ag130
(g134
S'\x10\xc3\x04\x01DM"\xc0'
p231
tp232
Rp233
asg143
Nsbag25
(g122
g27
Ntp234
Rp235
(dp236
g126
F0.5
sg127
I1
sS'perceptivity'
p237
F0.9
sg128
(lp238
g130
(g134
S'\xb4\xbd\xc6\xb9W\xdd\x17\xc0'
p239
tp240
Rp241
ag130
(g134
S'\xaa%\xd3\xd8lD\x16\xc0'
p242
tp243
Rp244
asg143
Nsbag25
(g122
g27
Ntp245
Rp246
(dp247
g126
F0.5
sg127
I1
sg237
F0.9
sg128
(lp248
g130
(g134
S'l\xeb\xf4\xa6\\l\x1b\xc0'
p249
tp250
Rp251
ag130
(g134
S'\xb2\x140\xac\xdc\xca\x17\xc0'
p252
tp253
Rp254
asg143
Nsbag25
(g122
g27
Ntp255
Rp256
(dp257
g126
F0.5
sg127
I1
sg237
F0.9
sg128
(lp258
g130
(g134
S'\xb0\x07\xdd\xc9\xce]\xfb?'
p259
tp260
Rp261
ag130
(g134
S'\x00\xe7p\xd2\x80\n\xba\xbf'
p262
tp263
Rp264
asg143
Nsbag25
(g122
g27
Ntp265
Rp266
(dp267
g126
F0.5
sg127
I1
sg237
F0.9
sg128
(lp268
g130
(g134
S' $\xa6\xf6K2\xe6?'
p269
tp270
Rp271
ag130
(g134
S'\x00\xdaES\xee\x05\xca?'
p272
tp273
Rp274
asg143
Nsbag25
(g122
g27
Ntp275
Rp276
(dp277
g126
F0.5
sg127
I1
sg237
F0.9
sg128
(lp278
g130
(g134
S"`\x08a\xb1k'\x11\xc0"
p279
tp280
Rp281
ag130
(g134
S't\x18[cY\xd3\x19@'
p282
tp283
Rp284
asg143
Nsbag25
(g122
g27
Ntp285
Rp286
(dp287
g126
F0.5
sg127
I1
sg237
F0.9
sg128
(lp288
g130
(g134
S'\x9c\xf0\xaf?\x08J\x13\xc0'
p289
tp290
Rp291
ag130
(g134
S'\xb0\x86\x8e`\xb5\x96\x17@'
p292
tp293
Rp294
asg143
Nsbag25
(g122
g27
Ntp295
Rp296
(dp297
g126
F0.5
sg127
I1
sg237
F0.9
sg128
(lp298
g130
(g134
S'D\x99\x13Yv/"\xc0'
p299
tp300
Rp301
ag130
(g134
S'\xa0Y\n\xf4\x88x\xec\xbf'
p302
tp303
Rp304
asg143
Nsbag25
(g122
g27
Ntp305
Rp306
(dp307
g126
F0.5
sg127
I1
sg237
F0.9
sg128
(lp308
g130
(g134
S'\x18eNd\x16\xc8\x0f@'
p309
tp310
Rp311
ag130
(g134
S"fN'w`\x9b\x12\xc0"
p312
tp313
Rp314
asg143
Nsbag25
(g122
g27
Ntp315
Rp316
(dp317
g126
F0.5
sg127
I1
sg237
F0.9
sg128
(lp318
g130
(g134
S"S4[H\xf6k'\xc0"
p319
tp320
Rp321
ag130
(g134
S'8\x10=\x84\xc8\xd7\n\xc0'
p322
tp323
Rp324
asg143
Nsbag25
(g122
g27
Ntp325
Rp326
(dp327
g126
F0.5
sg127
I1
sg237
F0.9
sg128
(lp328
g130
(g134
S'\x08}\xe0\xdf\x84\x88\x18@'
p329
tp330
Rp331
ag130
(g134
S'@\xb3\x8dn\xb4\xb8\xef?'
p332
tp333
Rp334
asg143
NsbasS'xystates'
p335
(lp336
(lp337
g130
(g134
S'h?\n+\x94\x97"\xc0'
p338
tp339
Rp340
ag130
(g134
S'\x00\xea$\xa9ux&\xc0'
p341
tp342
Rp343
aa(lp344
g130
(g134
S'\xa6\xe4\xe6\x01\xd1\xe9&\xc0'
p345
tp346
Rp347
ag130
(g134
S'\x03\xa2\xd8\xa2\x04p!\xc0'
p348
tp349
Rp350
aa(lp351
g130
(g134
S'\xc4\x10\xc2\xa2f\x11\x18\xc0'
p352
tp353
Rp354
ag130
(g134
S'6Il\xde\xb4\xbd\x1a\xc0'
p355
tp356
Rp357
aa(lp358
g130
(g134
S'\xe0\x0c\x98bz;\xf3?'
p359
tp360
Rp361
ag130
(g134
S'@\xdcg\xc0^g\xe8\xbf'
p362
tp363
Rp364
aa(lp365
g130
(g134
S'\xe0\x0c\x98bz;\xf3?'
p366
tp367
Rp368
ag130
(g134
S'\xb0\x95\xba\x84\x19\xf6\xf5?'
p369
tp370
Rp371
aa(lp372
g130
(g134
S'P\xc9\xcd\x83\xc0X\x19@'
p373
tp374
Rp375
ag130
(g134
S'\xc2DH\xd28&"\xc0'
p376
tp377
Rp378
aa(lp379
g130
(g134
S'<\x82\x9bx0f\x10@'
p380
tp381
Rp382
ag130
(g134
S'\xc5\xbeccy\x85&\xc0'
p383
tp384
Rp385
aa(lp386
g130
(g134
S'D\x99\x13Yv/"\xc0'
p387
tp388
Rp389
ag130
(g134
S'\xa4"\xf0J\x16\xe9\x18@'
p390
tp391
Rp392
aa(lp393
g130
(g134
S'n.g\xfe\x03\x1e$\xc0'
p394
tp395
Rp396
ag130
(g134
S'@\xd2\xb3\x93Y|\r@'
p397
tp398
Rp399
aa(lp400
g130
(g134
S'\xe2\x0f\xa8G\xcd\xdc&\xc0'
p401
tp402
Rp403
ag130
(g134
S'\x007\x1a\x1a\x90\x14\x17@'
p404
tp405
Rp406
aa(lp407
g130
(g134
S'<gD._\xf7\x17\xc0'
p408
tp409
Rp410
ag130
(g134
S'\xfe\xd5^\x92G\xc2\x15\xc0'
p411
tp412
Rp413
aa(lp414
g130
(g134
S'\x1c;i\xed\x81\xee\x1b\xc0'
p415
tp416
Rp417
ag130
(g134
S'\x8en9\xda\xbeb\x17\xc0'
p418
tp419
Rp420
aa(lp421
g130
(g134
S'\x90\xec\xa4\xb5\x81\xce\xfd?'
p422
tp423
Rp424
ag130
(g134
S'\x00\xcc\x1a\xd4[\x01\xaa?'
p425
tp426
Rp427
aa(lp428
g130
(g134
S'\xa0\x8b\xcb\xae\xd4\x91\xe4?'
p429
tp430
Rp431
ag130
(g134
S'@O\rI\xd4\x84\xd3?'
p432
tp433
Rp434
aa(lp435
g130
(g134
S"`\x08a\xb1k'\x11\xc0"
p436
tp437
Rp438
ag130
(g134
S'D\x0e\xc6{\x9c\xbd\x1a@'
p439
tp440
Rp441
aa(lp442
g130
(g134
S'8\xed(\x9d\x1e\x98\x13\xc0'
p443
tp444
Rp445
ag130
(g134
S'\x8c\xe0\x97\x8e\x97.\x17@'
p446
tp447
Rp448
aa(lp449
g130
(g134
S'\x08}\xe0\xdf\x84\x88\x18@'
p450
tp451
Rp452
ag130
(g134
S'\xe0f\xa0\xcax\xe8\xee?'
p453
tp454
Rp455
aa(lp456
g130
(g134
S'D\x99\x13Yv/"\xc0'
p457
tp458
Rp459
ag130
(g134
S'\xa0Y\n\xf4\x88x\xec\xbf'
p460
tp461
Rp462
aa(lp463
g130
(g134
S'0\xb8IM%\xfc\x0f@'
p464
tp465
Rp466
ag130
(g134
S"fN'w`\x9b\x12\xc0"
p467
tp468
Rp469
aa(lp470
g130
(g134
S"S4[H\xf6k'\xc0"
p471
tp472
Rp473
ag130
(g134
S'Lc8m\xd7\x0b\x0b\xc0'
p474
tp475
Rp476
aas.