(dp0
S'uvstates'
p1
(lp2
(lp3
F0.0
aF0.0
aa(lp4
F0.0
aF0.0
aa(lp5
F0.0
aF0.0
aa(lp6
F0.0
aF0.0
aa(lp7
F0.0
aF0.0
aa(lp8
F0.0
aF0.0
aa(lp9
F0.0
aF0.0
aasS'agents'
p10
(lp11
ccopy_reg
_reconstructor
p12
(cpyIA.agents
Robot
p13
c__builtin__
object
p14
Ntp15
Rp16
(dp17
S'radius'
p18
F0.3
sS'actions'
p19
(lp20
g12
(cpyIA.actions
Intend
p21
g14
Ntp22
Rp23
ag12
(cpyIA.actions
Say
p24
g14
Ntp25
Rp26
ag12
(cpyIA.actions
Nudge
p27
g14
Ntp28
Rp29
asbag12
(cpyIA.agents
Person
p30
g14
Ntp31
Rp32
(dp33
g18
F0.3
sg19
(lp34
sbag12
(g30
g14
Ntp35
Rp36
(dp37
g18
F0.3
sg19
(lp38
sbag12
(g30
g14
Ntp39
Rp40
(dp41
g18
F0.3
sg19
(lp42
sbag12
(g30
g14
Ntp43
Rp44
(dp45
g18
F0.3
sg19
(lp46
sbag12
(g30
g14
Ntp47
Rp48
(dp49
g18
F0.3
sg19
(lp50
sbag12
(g30
g14
Ntp51
Rp52
(dp53
g18
F0.3
sg19
(lp54
sbasS'innerstates'
p55
(lp56
g12
(cpyIA.agents
Innerstate
p57
g14
Ntp58
Rp59
(dp60
S'permissivity'
p61
F1.0
sS'patience'
p62
I1
sS'goal'
p63
(lp64
cnumpy.core.multiarray
scalar
p65
(cnumpy
dtype
p66
(S'f8'
p67
I0
I1
tp68
Rp69
(I3
S'<'
p70
NNNI-1
I-1
I0
tp71
bS'\xfc\xad\xfc\x16\x1f\x9f+@'
p72
tp73
Rp74
ag65
(g69
S'h\x81k.\x7fI\x1c@'
p75
tp76
Rp77
asS'undertaking'
p78
Nsbag12
(g57
g14
Ntp79
Rp80
(dp81
g61
F0.75
sg62
I1
sg63
(lp82
g65
(g69
S'\x80\xf40\x10I\xa3\t@'
p83
tp84
Rp85
ag65
(g69
S'\x80\x0f3\xef\xd7\x85\xdf\xbf'
p86
tp87
Rp88
asg78
Nsbag12
(g57
g14
Ntp89
Rp90
(dp91
g61
F0.75
sg62
I1
sg63
(lp92
g65
(g69
S'\x04G\xa3]\x96T7\xc0'
p93
tp94
Rp95
ag65
(g69
S'@G\xde\xf2\x1fr\xe7\xbf'
p96
tp97
Rp98
asg78
Nsbag12
(g57
g14
Ntp99
Rp100
(dp101
g61
F0.75
sg62
I1
sg63
(lp102
g65
(g69
S'\xa0\x12&\xad\xed\xb0\xfe\xbf'
p103
tp104
Rp105
ag65
(g69
S'\xd0\xb2\x93\xeff\xbb\xfb\xbf'
p106
tp107
Rp108
asg78
Nsbag12
(g57
g14
Ntp109
Rp110
(dp111
g61
F0.75
sg62
I1
sg63
(lp112
g65
(g69
S'\x00\xa7`p\x93\x85\xe9\xbf'
p113
tp114
Rp115
ag65
(g69
S'\xb8\xf1\xf71\x18\x86\x16@'
p116
tp117
Rp118
asg78
Nsbag12
(g57
g14
Ntp119
Rp120
(dp121
g61
F0.75
sg62
I1
sg63
(lp122
g65
(g69
S'\xfa\xb81=\x03\r8\xc0'
p123
tp124
Rp125
ag65
(g69
S'`\xf6Q\xf2[\x19\xe4?'
p126
tp127
Rp128
asg78
Nsbag12
(g57
g14
Ntp129
Rp130
(dp131
g61
F0.75
sg62
I1
sg63
(lp132
g65
(g69
S'\xc0\xaa\xe24\x06\xfa\xf1?'
p133
tp134
Rp135
ag65
(g69
S'\xa8\x11.1\xf6\xcd\x17@'
p136
tp137
Rp138
asg78
NsbasS'xystates'
p139
(lp140
(lp141
g65
(g69
S'\x1b=\xac\xfeB\xa65\xc0'
p142
tp143
Rp144
ag65
(g69
S'\xb8\x18\xe7o_\xac\n\xc0'
p145
tp146
Rp147
aa(lp148
g65
(g69
S'\xc0\xaa\xe24\x06\xfa\xf1?'
p149
tp150
Rp151
ag65
(g69
S'\xa8\x11.1\xf6\xcd\x17@'
p152
tp153
Rp154
aa(lp155
g65
(g69
S'\x00\xc7\x96oq\xcd\xea\xbf'
p156
tp157
Rp158
ag65
(g69
S'\xb8\xf1\xf71\x18\x86\x16@'
p159
tp160
Rp161
aa(lp162
g65
(g69
S'\xf9i+-B\x178\xc0'
p163
tp164
Rp165
ag65
(g69
S'@\x16\x88\xf19a\xe5?'
p166
tp167
Rp168
aa(lp169
g65
(g69
S'\x04G\xa3]\x96T7\xc0'
p170
tp171
Rp172
ag65
(g69
S'@G\xde\xf2\x1fr\xe7\xbf'
p173
tp174
Rp175
aa(lp176
g65
(g69
S'\x80|\xfe\x8f@\xf5\t@'
p177
tp178
Rp179
ag65
(g69
S'\x80\x0f3\xef\xd7\x85\xdf\xbf'
p180
tp181
Rp182
aa(lp183
g65
(g69
S'\xa0\x12&\xad\xed\xb0\xfe\xbf'
p184
tp185
Rp186
ag65
(g69
S'\xd0\xa2\xf8\xefw\x17\xfb\xbf'
p187
tp188
Rp189
aas.