(dp0
S'uvstates'
p1
(lp2
(lp3
F0.0
aF0.0
aa(lp4
F0.0
aF0.0
aa(lp5
F0.0
aF0.0
aa(lp6
F0.0
aF0.0
aa(lp7
F0.0
aF0.0
aa(lp8
F0.0
aF0.0
aa(lp9
F0.0
aF0.0
aa(lp10
F0.0
aF0.0
aa(lp11
F0.0
aF0.0
aa(lp12
F0.0
aF0.0
aa(lp13
F0.0
aF0.0
aa(lp14
F0.0
aF0.0
aa(lp15
F0.0
aF0.0
aa(lp16
F0.0
aF0.0
aa(lp17
F0.0
aF0.0
aa(lp18
F0.0
aF0.0
aa(lp19
F0.0
aF0.0
aa(lp20
F0.0
aF0.0
aasS'agents'
p21
(lp22
ccopy_reg
_reconstructor
p23
(cpyIA.agents
Robot
p24
c__builtin__
object
p25
Ntp26
Rp27
(dp28
S'radius'
p29
F0.3
sS'actions'
p30
(lp31
g23
(cpyIA.actions
Intend
p32
g25
Ntp33
Rp34
ag23
(cpyIA.actions
Say
p35
g25
Ntp36
Rp37
ag23
(cpyIA.actions
Nudge
p38
g25
Ntp39
Rp40
asbag23
(cpyIA.agents
Person
p41
g25
Ntp42
Rp43
(dp44
g29
F0.3
sg30
(lp45
sbag23
(g41
g25
Ntp46
Rp47
(dp48
g29
F0.3
sg30
(lp49
sbag23
(g41
g25
Ntp50
Rp51
(dp52
g29
F0.3
sg30
(lp53
sbag23
(g41
g25
Ntp54
Rp55
(dp56
g29
F0.3
sg30
(lp57
sbag23
(g41
g25
Ntp58
Rp59
(dp60
g29
F0.3
sg30
(lp61
sbag23
(g41
g25
Ntp62
Rp63
(dp64
g29
F0.3
sg30
(lp65
sbag23
(g41
g25
Ntp66
Rp67
(dp68
g29
F0.3
sg30
(lp69
sbag23
(g41
g25
Ntp70
Rp71
(dp72
g29
F0.3
sg30
(lp73
sbag23
(g41
g25
Ntp74
Rp75
(dp76
g29
F0.3
sg30
(lp77
sbag23
(g41
g25
Ntp78
Rp79
(dp80
g29
F0.3
sg30
(lp81
sbag23
(g41
g25
Ntp82
Rp83
(dp84
g29
F0.3
sg30
(lp85
sbag23
(g41
g25
Ntp86
Rp87
(dp88
g29
F0.3
sg30
(lp89
sbag23
(g41
g25
Ntp90
Rp91
(dp92
g29
F0.3
sg30
(lp93
sbag23
(g41
g25
Ntp94
Rp95
(dp96
g29
F0.3
sg30
(lp97
sbag23
(g41
g25
Ntp98
Rp99
(dp100
g29
F0.3
sg30
(lp101
sbag23
(g41
g25
Ntp102
Rp103
(dp104
g29
F0.3
sg30
(lp105
sbag23
(g41
g25
Ntp106
Rp107
(dp108
g29
F0.3
sg30
(lp109
sbasS'innerstates'
p110
(lp111
g23
(cpyIA.agents
Innerstate
p112
g25
Ntp113
Rp114
(dp115
S'permissivity'
p116
F0.5
sS'patience'
p117
I1
sS'perceptivity'
p118
F0.9
sS'goal'
p119
(lp120
cnumpy.core.multiarray
scalar
p121
(cnumpy
dtype
p122
(S'f8'
p123
I0
I1
tp124
Rp125
(I3
S'<'
p126
NNNI-1
I-1
I0
tp127
bS'\xcc\xe2\x94UMz\x10\xc0'
p128
tp129
Rp130
ag121
(g125
S'V\xf61f\x13##@'
p131
tp132
Rp133
asS'undertaking'
p134
Nsbag23
(g112
g25
Ntp135
Rp136
(dp137
g116
F0.5
sg117
I1
sg118
F0.9
sg119
(lp138
g121
(g125
S'\xa0\x1b.\xf2\xd0H\xfb?'
p139
tp140
Rp141
ag121
(g125
S'\xbc\xef\x0fMK\xae!@'
p142
tp143
Rp144
asg134
Nsbag23
(g112
g25
Ntp145
Rp146
(dp147
g116
F0.5
sg117
I1
sg118
F0.9
sg119
(lp148
g121
(g125
S'\x00U\x86!\xf5\x80\xe7?'
p149
tp150
Rp151
ag121
(g125
S'\xbc\xef\x0fMK\xae!@'
p152
tp153
Rp154
asg134
Nsbag23
(g112
g25
Ntp155
Rp156
(dp157
g116
F0.5
sg117
I1
sg118
F0.9
sg119
(lp158
g121
(g125
S'\x90\xce\xb9f\xbd\xa7\xf2?'
p159
tp160
Rp161
ag121
(g125
S'\xe6\xd0\x89q\xb0>#@'
p162
tp163
Rp164
asg134
Nsbag23
(g112
g25
Ntp165
Rp166
(dp167
g116
F0.5
sg117
I1
sg118
F0.9
sg119
(lp168
g121
(g125
S'\x80\x8fm\x00{\xe2\xcf?'
p169
tp170
Rp171
ag121
(g125
S'\x90\xddD;-\xf2#@'
p172
tp173
Rp174
asg134
Nsbag23
(g112
g25
Ntp175
Rp176
(dp177
g116
F0.5
sg117
I1
sg118
F0.9
sg119
(lp178
g121
(g125
S'\x80\xc3\x1c\xf8?\xd9\xd0\xbf'
p179
tp180
Rp181
ag121
(g125
S'\x94\xb7\x13\xde\xb6\xd7!@'
p182
tp183
Rp184
asg134
Nsbag23
(g112
g25
Ntp185
Rp186
(dp187
g116
F0.5
sg117
I1
sg118
F0.9
sg119
(lp188
g121
(g125
S'`\x83A\xe2\x9b\xea\xe1\xbf'
p189
tp190
Rp191
ag121
(g125
S'\xe6\xd0\x89q\xb0>#@'
p192
tp193
Rp194
asg134
Nsbag23
(g112
g25
Ntp195
Rp196
(dp197
g116
F0.5
sg117
I1
sg118
F0.9
sg119
(lp198
g121
(g125
S'P\x87J\xad\x8cZ\xf9\xbf'
p199
tp200
Rp201
ag121
(g125
S'\xfcYoz\xbf\x1c"@'
p202
tp203
Rp204
asg134
Nsbag23
(g112
g25
Ntp205
Rp206
(dp207
g116
F0.5
sg117
I1
sg118
F0.9
sg119
(lp208
g121
(g125
S'\xd0JP\xd8!X\x00\xc0'
p209
tp210
Rp211
ag121
(g125
S'\x94\xb7\x13\xde\xb6\xd7!@'
p212
tp213
Rp214
asg134
Nsbag23
(g112
g25
Ntp215
Rp216
(dp217
g116
F0.5
sg117
I1
sg118
F0.9
sg119
(lp218
g121
(g125
S' o\xe6\xea\xb9_\xfc\xbf'
p219
tp220
Rp221
ag121
(g125
S'\x00\x03\xed/\x90\xd6#@'
p222
tp223
Rp224
asg134
Nsbag23
(g112
g25
Ntp225
Rp226
(dp227
g116
F0.5
sg117
I1
sg118
F0.9
sg119
(lp228
g121
(g125
S'\x00\x03\x8b\xb6S\r\xe4?'
p229
tp230
Rp231
ag121
(g125
S'|\xf5_\xba\x1b\x7f\x17@'
p232
tp233
Rp234
asg134
Nsbag23
(g112
g25
Ntp235
Rp236
(dp237
g116
F0.5
sg117
I1
sg118
F0.9
sg119
(lp238
g121
(g125
S'\xe0W\x00=\x84\xc7\xe2\xbf'
p239
tp240
Rp241
ag121
(g125
S'\x18d\xb4@U\xe4\x0f@'
p242
tp243
Rp244
asg134
Nsbag23
(g112
g25
Ntp245
Rp246
(dp247
g116
F0.5
sg117
I1
sg118
F0.9
sg119
(lp248
g121
(g125
S'\xc0g\x13\xce\x82\xc0\xd7\xbf'
p249
tp250
Rp251
ag121
(g125
S' \x8a\xee\xbb\x80\xa4\x12@'
p252
tp253
Rp254
asg134
Nsbag23
(g112
g25
Ntp255
Rp256
(dp257
g116
F0.5
sg117
I1
sg118
F0.9
sg119
(lp258
g121
(g125
S'\xc0\x192\xeb\xded\xd3?'
p259
tp260
Rp261
ag121
(g125
S'xL\xe2\x04K\xc5\x15@'
p262
tp263
Rp264
asg134
Nsbag23
(g112
g25
Ntp265
Rp266
(dp267
g116
F0.5
sg117
I1
sg118
F0.9
sg119
(lp268
g121
(g125
S'P\x8c\xd1\x8c\x1a-\xf4\xbf'
p269
tp270
Rp271
ag121
(g125
S't\xa3dOz\x0b\x14@'
p272
tp273
Rp274
asg134
Nsbag23
(g112
g25
Ntp275
Rp276
(dp277
g116
F0.5
sg117
I1
sg118
F0.9
sg119
(lp278
g121
(g125
S'\x80"\xb1\xd8P\xff\xed\xbf'
p279
tp280
Rp281
ag121
(g125
S'\x0c\xd0\xb7\xc5\xb8\x9a\x17@'
p282
tp283
Rp284
asg134
Nsbag23
(g112
g25
Ntp285
Rp286
(dp287
g116
F0.5
sg117
I1
sg118
F0.9
sg119
(lp288
g121
(g125
S'\x80\xc3\x1c\xf8?\xd9\xd0\xbf'
p289
tp290
Rp291
ag121
(g125
S'\xa0S\x8d\x86&p\x19@'
p292
tp293
Rp294
asg134
Nsbag23
(g112
g25
Ntp295
Rp296
(dp297
g116
F0.5
sg117
I1
sg118
F0.9
sg119
(lp298
g121
(g125
S'`\x83A\xe2\x9b\xea\xe1\xbf'
p299
tp300
Rp301
ag121
(g125
S'4\xd7bG\x94E\x1b@'
p302
tp303
Rp304
asg134
NsbasS'xystates'
p305
(lp306
(lp307
g121
(g125
S'\x0c\xcfx\xe8\xb9\xa0\x14@'
p308
tp309
Rp310
ag121
(g125
S'\x16\x8c\xd28\x9f\xb4"@'
p311
tp312
Rp313
aa(lp314
g121
(g125
S'\xa0\xc4\xab\xa7\xa1\x02\xfd?'
p315
tp316
Rp317
ag121
(g125
S'\x9a:`6\x11w!@'
p318
tp319
Rp320
aa(lp321
g121
(g125
S'\x80)E|\xdd]\xe8?'
p322
tp323
Rp324
ag121
(g125
S'\x04\xdd\xbb\xd2\x19\xbc!@'
p325
tp326
Rp327
aa(lp328
g121
(g125
S'\x10\xa3x\xc1\xa5\x84\xf3?'
p329
tp330
Rp331
ag121
(g125
S'.\xbe5\xf7~L#@'
p332
tp333
Rp334
aa(lp335
g121
(g125
S'\xc0p\xb45\x0e\xab\xd1?'
p336
tp337
Rp338
ag121
(g125
S'h\xa5H\xcc\x98\x1b$@'
p339
tp340
Rp341
aa(lp342
g121
(g125
S'\x00\x91G\xaf\x9bW\xc7\xbf'
p343
tp344
Rp345
ag121
(g125
S'L\xcagX\xe8\xc9!@'
p346
tp347
Rp348
aa(lp349
g121
(g125
S'`\x83A\xe2\x9b\xea\xe1\xbf'
p350
tp351
Rp352
ag121
(g125
S'\x08\x869\x88\xeau#@'
p353
tp354
Rp355
aa(lp356
g121
(g125
S'\x90\x9f\xaeo_U\xf6\xbf'
p357
tp358
Rp359
ag121
(g125
S'\x1c\x0f\x1f\x91\xf9S"@'
p360
tp361
Rp362
aa(lp363
g121
(g125
S'\xb8>\x1ew\xb8\xda\x01\xc0'
p364
tp365
Rp366
ag121
(g125
S'L\xcagX\xe8\xc9!@'
p367
tp368
Rp369
aa(lp370
g121
(g125
S'`\x82\xc3\xcd\xfe\x87\xfe\xbf'
p371
tp372
Rp373
ag121
(g125
S'\xb0\x92\xf4Qg)$@'
p374
tp375
Rp376
aa(lp377
g121
(g125
S'\x80\xd7I\x11<\xea\xe4?'
p378
tp379
Rp380
ag121
(g125
S'\xbc_\xbf\xe7\x8f\xed\x17@'
p381
tp382
Rp383
aa(lp384
g121
(g125
S'\xe0W\x00=\x84\xc7\xe2\xbf'
p385
tp386
Rp387
ag121
(g125
S'\x18d\xb4@U\xe4\x0f@'
p388
tp389
Rp390
aa(lp391
g121
(g125
S'\xc0g\x13\xce\x82\xc0\xd7\xbf'
p392
tp393
Rp394
ag121
(g125
S'\x14\x84U\x0b\xcce\x13@'
p395
tp396
Rp397
aa(lp398
g121
(g125
S'\x80\x8fm\x00{\xe2\xcf?'
p399
tp400
Rp401
ag121
(g125
S'X\x972\xee\x10\x8e\x15@'
p402
tp403
Rp404
aa(lp405
g121
(g125
S'\xd0\t\x0e\x9d\xd3\xc3\xf6\xbf'
p406
tp407
Rp408
ag121
(g125
S'\x94X\x14f\xb4B\x14@'
p409
tp410
Rp411
aa(lp412
g121
(g125
S'\x80\xcb.\x8e!\xb9\xef\xbf'
p413
tp414
Rp415
ag121
(g125
S',\x85g\xdc\xf2\xd1\x17@'
p416
tp417
Rp418
aa(lp419
g121
(g125
S'\x00\xe3B\x1a=\xcb\xca\xbf'
p420
tp421
Rp422
ag121
(g125
S'\xc0\x08=\x9d`\xa7\x19@'
p423
tp424
Rp425
aa(lp426
g121
(g125
S'\xe0\x00~\xf2T\x81\xe4\xbf'
p427
tp428
Rp429
ag121
(g125
S'\x98\xf6q\x8bB\xeb\x1b@'
p430
tp431
Rp432
aas.