(dp0
S'uvstates'
p1
(lp2
(lp3
F0.0
aF0.0
aa(lp4
F0.0
aF0.0
aa(lp5
F0.0
aF0.0
aa(lp6
F0.0
aF0.0
aa(lp7
F0.0
aF0.0
aa(lp8
F0.0
aF0.0
aa(lp9
F0.0
aF0.0
aa(lp10
F0.0
aF0.0
aa(lp11
F0.0
aF0.0
aa(lp12
F0.0
aF0.0
aa(lp13
F0.0
aF0.0
aasS'agents'
p14
(lp15
ccopy_reg
_reconstructor
p16
(cpyIA.agents
Robot
p17
c__builtin__
object
p18
Ntp19
Rp20
(dp21
S'radius'
p22
F0.3
sS'actions'
p23
(lp24
g16
(cpyIA.actions
Intend
p25
g18
Ntp26
Rp27
ag16
(cpyIA.actions
Say
p28
g18
Ntp29
Rp30
ag16
(cpyIA.actions
Nudge
p31
g18
Ntp32
Rp33
asbag16
(cpyIA.agents
Person
p34
g18
Ntp35
Rp36
(dp37
g22
F0.3
sg23
(lp38
sbag16
(g34
g18
Ntp39
Rp40
(dp41
g22
F0.3
sg23
(lp42
sbag16
(g34
g18
Ntp43
Rp44
(dp45
g22
F0.3
sg23
(lp46
sbag16
(g34
g18
Ntp47
Rp48
(dp49
g22
F0.3
sg23
(lp50
sbag16
(g34
g18
Ntp51
Rp52
(dp53
g22
F0.3
sg23
(lp54
sbag16
(g34
g18
Ntp55
Rp56
(dp57
g22
F0.3
sg23
(lp58
sbag16
(g34
g18
Ntp59
Rp60
(dp61
g22
F0.3
sg23
(lp62
sbag16
(g34
g18
Ntp63
Rp64
(dp65
g22
F0.3
sg23
(lp66
sbag16
(g34
g18
Ntp67
Rp68
(dp69
g22
F0.3
sg23
(lp70
sbag16
(g34
g18
Ntp71
Rp72
(dp73
g22
F0.3
sg23
(lp74
sbasS'innerstates'
p75
(lp76
g16
(cpyIA.agents
Innerstate
p77
g18
Ntp78
Rp79
(dp80
S'permissivity'
p81
F0.5
sS'patience'
p82
I1
sS'perceptivity'
p83
F0.9
sS'goal'
p84
(lp85
cnumpy.core.multiarray
scalar
p86
(cnumpy
dtype
p87
(S'f8'
p88
I0
I1
tp89
Rp90
(I3
S'<'
p91
NNNI-1
I-1
I0
tp92
bS'\x80\xc3}\x9a\x85\xf1\x06\xc0'
p93
tp94
Rp95
ag86
(g90
S'\x9cD\xf6\xa9\xc4s\x18@'
p96
tp97
Rp98
asS'undertaking'
p99
Nsbag16
(g77
g18
Ntp100
Rp101
(dp102
g81
F0.5
sg82
I1
sg83
F0.9
sg84
(lp103
g86
(g90
S'@:vxN8\xf9?'
p104
tp105
Rp106
ag86
(g90
S'\xa0\x8d\xb4\x01\xcce\x04@'
p107
tp108
Rp109
asg99
Nsbag16
(g77
g18
Ntp110
Rp111
(dp112
g81
F0.5
sg82
I1
sg83
F0.9
sg84
(lp113
g86
(g90
S'\xa0^\xe4~\x1d\xc6\x00@'
p114
tp115
Rp116
ag86
(g90
S'\xa8}A\x08\xb4\xa5\x0e@'
p117
tp118
Rp119
asg99
Nsbag16
(g77
g18
Ntp120
Rp121
(dp122
g81
F0.5
sg82
I1
sg83
F0.9
sg84
(lp123
g86
(g90
S'\xb0i\xf0\x00\x16\xfa\x03@'
p124
tp125
Rp126
ag86
(g90
S'\xa0g)\x04\xc3=\x08@'
p127
tp128
Rp129
asg99
Nsbag16
(g77
g18
Ntp130
Rp131
(dp132
g81
F0.5
sg82
I1
sg83
F0.9
sg84
(lp133
g86
(g90
S' \x95\x81?\x1b\xbc\x01@'
p134
tp135
Rp136
ag86
(g90
S'0\xe4,y\xbd\xc7\xf8?'
p137
tp138
Rp139
asg99
Nsbag16
(g77
g18
Ntp140
Rp141
(dp142
g81
F0.5
sg82
I1
sg83
F0.9
sg84
(lp143
g86
(g90
S'@/j\xf6U\x04\xf6?'
p144
tp145
Rp146
ag86
(g90
S'0\xef8\xfb\xb5\xfb\xfb?'
p147
tp148
Rp149
asg99
Nsbag16
(g77
g18
Ntp150
Rp151
(dp152
g81
F0.5
sg82
I1
sg83
F0.9
sg84
(lp153
g86
(g90
S'\xc0\xf5b?\xb2&\xe9\xbf'
p154
tp155
Rp156
ag86
(g90
S'\x18\x03Mg\xceI\x14@'
p157
tp158
Rp159
asg99
Nsbag16
(g77
g18
Ntp160
Rp161
(dp162
g81
F0.5
sg82
I1
sg83
F0.9
sg84
(lp163
g86
(g90
S"\xe0\x08\x10'>\x1b\xf8\xbf"
p164
tp165
Rp166
ag86
(g90
S"\x98\x9b\x18'\xcf\xf7\x13@"
p167
tp168
Rp169
asg99
Nsbag16
(g77
g18
Ntp170
Rp171
(dp172
g81
F0.5
sg82
I1
sg83
F0.9
sg84
(lp173
g86
(g90
S'\xe0_2\xa4H\x9f\xf3\xbf'
p174
tp175
Rp176
ag86
(g90
S'T\xf5\xbd\xc4\xd7H\x10@'
p177
tp178
Rp179
asg99
Nsbag16
(g77
g18
Ntp180
Rp181
(dp182
g81
F0.5
sg82
I1
sg83
F0.9
sg84
(lp183
g86
(g90
S'\xb08Y\x81\x14\x9e\x04@'
p184
tp185
Rp186
ag86
(g90
S'\x1c\xe8\xcd\xeb\xbdU\x1b@'
p187
tp188
Rp189
asg99
Nsbag16
(g77
g18
Ntp190
Rp191
(dp192
g81
F0.5
sg82
I1
sg83
F0.9
sg84
(lp193
g86
(g90
S'\x00\x98\xec[\x80/\t\xc0'
p194
tp195
Rp196
ag86
(g90
S'\x00\x087\xa9\xc4\x07\xfd\xbf'
p197
tp198
Rp199
asg99
NsbasS'xystates'
p200
(lp201
(lp202
g86
(g90
S'\xe0$\x05\x07\xf3<\x14@'
p203
tp204
Rp205
ag86
(g90
S'\xf0y\xd8\xa1\xdf\x7f\xf1\xbf'
p206
tp207
Rp208
aa(lp209
g86
(g90
S'@\xd8GyK\x80\xfa?'
p210
tp211
Rp212
ag86
(g90
S' &\x80\xc1\xcc\x13\x04@'
p213
tp214
Rp215
aa(lp216
g86
(g90
S'\xa0\x8f{\xfe\x1e"\x00@'
p217
tp218
Rp219
ag86
(g90
S'\xa8\xae\xd8\x87\xb5\x01\x0e@'
p220
tp221
Rp222
aa(lp223
g86
(g90
S'\xb0\xcb\x1e\x00\x19\xb2\x02@'
p224
tp225
Rp226
ag86
(g90
S'\xa0g)\x04\xc3=\x08@'
p227
tp228
Rp229
aa(lp230
g86
(g90
S'\xb0\xfc\xb5\x7f\x1a\x0e\x02@'
p231
tp232
Rp233
ag86
(g90
S'0\xb3\x95\xf9\xbbk\xf9?'
p234
tp235
Rp236
aa(lp237
g86
(g90
S'@\xcd;\xf7RL\xf7?'
p238
tp239
Rp240
ag86
(g90
S'0\xbe\xa1{\xb4\x9f\xfc?'
p241
tp242
Rp243
aa(lp244
g86
(g90
S'\xc0\xb9\xbf=\xb8\x96\xe6\xbf'
p245
tp246
Rp247
ag86
(g90
S"\x98\x9b\x18'\xcf\xf7\x13@"
p248
tp249
Rp250
aa(lp251
g86
(g90
S"\xe0\x08\x10'>\x1b\xf8\xbf"
p252
tp253
Rp254
ag86
(g90
S"\x98\x9b\x18'\xcf\xf7\x13@"
p255
tp256
Rp257
aa(lp258
g86
(g90
S'\xe0_2\xa4H\x9f\xf3\xbf'
p259
tp260
Rp261
ag86
(g90
S'T\xf5\xbd\xc4\xd7H\x10@'
p262
tp263
Rp264
aa(lp265
g86
(g90
S'\x00\x98\xec[\x80/\t\xc0'
p266
tp267
Rp268
ag86
(g90
S'\x00\xd7\x9f)\xc3\xab\xfd\xbf'
p269
tp270
Rp271
aa(lp272
g86
(g90
S'\xb08Y\x81\x14\x9e\x04@'
p273
tp274
Rp275
ag86
(g90
S'\xdcL\x7f\x0b\xbf\xda\x1a@'
p276
tp277
Rp278
aas.