(dp0
S'uvstates'
p1
(lp2
(lp3
F0.0
aF0.0
aa(lp4
F0.0
aF0.0
aa(lp5
F0.0
aF0.0
aa(lp6
F0.0
aF0.0
aa(lp7
F0.0
aF0.0
aa(lp8
F0.0
aF0.0
aa(lp9
F0.0
aF0.0
aa(lp10
F0.0
aF0.0
aa(lp11
F0.0
aF0.0
aasS'agents'
p12
(lp13
ccopy_reg
_reconstructor
p14
(cpyIA.agents
Robot
p15
c__builtin__
object
p16
Ntp17
Rp18
(dp19
S'radius'
p20
F0.3
sS'actions'
p21
(lp22
g14
(cpyIA.actions
Intend
p23
g16
Ntp24
Rp25
ag14
(cpyIA.actions
Say
p26
g16
Ntp27
Rp28
ag14
(cpyIA.actions
Nudge
p29
g16
Ntp30
Rp31
asbag14
(cpyIA.agents
Person
p32
g16
Ntp33
Rp34
(dp35
g20
F0.3
sg21
(lp36
sbag14
(g32
g16
Ntp37
Rp38
(dp39
g20
F0.3
sg21
(lp40
sbag14
(g32
g16
Ntp41
Rp42
(dp43
g20
F0.3
sg21
(lp44
sbag14
(g32
g16
Ntp45
Rp46
(dp47
g20
F0.3
sg21
(lp48
sbag14
(g32
g16
Ntp49
Rp50
(dp51
g20
F0.3
sg21
(lp52
sbag14
(g32
g16
Ntp53
Rp54
(dp55
g20
F0.3
sg21
(lp56
sbag14
(g32
g16
Ntp57
Rp58
(dp59
g20
F0.3
sg21
(lp60
sbag14
(g32
g16
Ntp61
Rp62
(dp63
g20
F0.3
sg21
(lp64
sbasS'innerstates'
p65
(lp66
g14
(cpyIA.agents
Innerstate
p67
g16
Ntp68
Rp69
(dp70
S'permissivity'
p71
F0.5
sS'patience'
p72
I1
sS'perceptivity'
p73
F0.9
sS'goal'
p74
(lp75
cnumpy.core.multiarray
scalar
p76
(cnumpy
dtype
p77
(S'f8'
p78
I0
I1
tp79
Rp80
(I3
S'<'
p81
NNNI-1
I-1
I0
tp82
bS'\xc0\xd1;\x9b\x93\xf40\xc0'
p83
tp84
Rp85
ag76
(g80
S'\xc0QZ\xbb;\x99\xd9?'
p86
tp87
Rp88
asS'undertaking'
p89
Nsbag14
(g67
g16
Ntp90
Rp91
(dp92
g71
F0.5
sg72
I1
sg73
F0.9
sg74
(lp93
g76
(g80
S'T$\xa0\xec3\xb0(\xc0'
p94
tp95
Rp96
ag76
(g80
S'l\x14B\x9fAN\x10\xc0'
p97
tp98
Rp99
asg89
Nsbag14
(g67
g16
Ntp100
Rp101
(dp102
g71
F0.5
sg72
I1
sg73
F0.9
sg74
(lp103
g76
(g80
S'\xe1$)UG\xe6*\xc0'
p104
tp105
Rp106
ag76
(g80
S'\xf4\xce\xa5\xf4\x91.\x13@'
p107
tp108
Rp109
asg89
Nsbag14
(g67
g16
Ntp110
Rp111
(dp112
g71
F0.5
sg72
I1
sg73
F0.9
sg74
(lp113
g76
(g80
S'P`Q]\xb4X\x0b\xc0'
p114
tp115
Rp116
ag76
(g80
S'L\x9c\xb9\xcd\x9e`\x10@'
p117
tp118
Rp119
asg89
Nsbag14
(g67
g16
Ntp120
Rp121
(dp122
g71
F0.5
sg72
I1
sg73
F0.9
sg74
(lp123
g76
(g80
S'(\x02$\x91\xa9g\t\xc0'
p124
tp125
Rp126
ag76
(g80
S'\xac~\xa1\xcc\xb5\xbc\x10\xc0'
p127
tp128
Rp129
asg89
Nsbag14
(g67
g16
Ntp130
Rp131
(dp132
g71
F0.5
sg72
I1
sg73
F0.9
sg74
(lp133
g76
(g80
S'\xc0\xdc\xfb\xa4\x98;\x11\xc0'
p134
tp135
Rp136
ag76
(g80
S'\x04Fo\xe0\xe3i\x08\xc0'
p137
tp138
Rp139
asg89
Nsbag14
(g67
g16
Ntp140
Rp141
(dp142
g71
F0.5
sg72
I1
sg73
F0.9
sg74
(lp143
g76
(g80
S'\xe0\x91\xab\xbb\xd2r\x11\xc0'
p144
tp145
Rp146
ag76
(g80
S"\x08':\x10\xe8\xe0\x15@"
p147
tp148
Rp149
asg89
Nsbag14
(g67
g16
Ntp150
Rp151
(dp152
g71
F0.5
sg72
I1
sg73
F0.9
sg74
(lp153
g76
(g80
S'\x92\xb40w\x1e9+\xc0'
p154
tp155
Rp156
ag76
(g80
S'\xc02\x92\xfd\x9eA\x06\xc0'
p157
tp158
Rp159
asg89
Nsbag14
(g67
g16
Ntp160
Rp161
(dp162
g71
F0.5
sg72
I1
sg73
F0.9
sg74
(lp163
g76
(g80
S'\x12\xba@\xbf\xbfA(\xc0'
p164
tp165
Rp166
ag76
(g80
S'@4~Bx\xca\x18@'
p167
tp168
Rp169
asg89
NsbasS'xystates'
p170
(lp171
(lp172
g76
(g80
S'\x00\x92\xb4\x06,\x12\xb3\xbf'
p173
tp174
Rp175
ag76
(g80
S'\xa0\x04\xe6/(\xf8\xd0?'
p176
tp177
Rp178
aa(lp179
g76
(g80
S'QJ\xd1I\xaa\xca*\xc0'
p180
tp181
Rp182
ag76
(g80
S'\x84\xa9\xfd\xff.J\x13@'
p183
tp184
Rp185
aa(lp186
g76
(g80
S'\x01\xda\xd8k\x81\x1d+\xc0'
p187
tp188
Rp189
ag76
(g80
S'`\x13\x83\xb9\xf0\x9b\x05\xc0'
p190
tp191
Rp192
aa(lp193
g76
(g80
S'P\xb7S\xb05W\x11\xc0'
p194
tp195
Rp196
ag76
(g80
S'\xc4\xdb\x0f\xb3o\xfb\x07\xc0'
p197
tp198
Rp199
aa(lp200
g76
(g80
S'(\xab\xa1Fz!\x0b\xc0'
p201
tp202
Rp203
ag76
(g80
S'L\x9c\xb9\xcd\x9e`\x10@'
p204
tp205
Rp206
aa(lp207
g76
(g80
S'P\xb7S\xb05W\x11\xc0'
p208
tp209
Rp210
ag76
(g80
S"\x08':\x10\xe8\xe0\x15@"
p211
tp212
Rp213
aa(lp214
g76
(g80
S'H\xb7\xd3\xa7\xe3\x9e\t\xc0'
p215
tp216
Rp217
ag76
(g80
S'\xac~\xa1\xcc\xb5\xbc\x10\xc0'
p218
tp219
Rp220
aa(lp221
g76
(g80
S'Z\xa7\xecD\x8eO(\xc0'
p222
tp223
Rp224
ag76
(g80
S'\xd0\x0e\xd6M\x15\xe6\x18@'
p225
tp226
Rp227
aa(lp228
g76
(g80
S'\xe4\xfe\xf7\xf7\xd0\xcb(\xc0'
p229
tp230
Rp231
ag76
(g80
S'\xdc9\xea\x93\xa42\x10\xc0'
p232
tp233
Rp234
aas.