(dp0
S'uvstates'
p1
(lp2
(lp3
F0.0
aF0.0
aa(lp4
F0.0
aF0.0
aa(lp5
F0.0
aF0.0
aa(lp6
F0.0
aF0.0
aa(lp7
F0.0
aF0.0
aa(lp8
F0.0
aF0.0
aa(lp9
F0.0
aF0.0
aa(lp10
F0.0
aF0.0
aa(lp11
F0.0
aF0.0
aa(lp12
F0.0
aF0.0
aasS'agents'
p13
(lp14
ccopy_reg
_reconstructor
p15
(cpyIA.agents
Robot
p16
c__builtin__
object
p17
Ntp18
Rp19
(dp20
S'radius'
p21
F0.3
sS'actions'
p22
(lp23
g15
(cpyIA.actions
Intend
p24
g17
Ntp25
Rp26
ag15
(cpyIA.actions
Say
p27
g17
Ntp28
Rp29
ag15
(cpyIA.actions
Nudge
p30
g17
Ntp31
Rp32
asbag15
(cpyIA.agents
Person
p33
g17
Ntp34
Rp35
(dp36
g21
F0.3
sg22
(lp37
sbag15
(g33
g17
Ntp38
Rp39
(dp40
g21
F0.3
sg22
(lp41
sbag15
(g33
g17
Ntp42
Rp43
(dp44
g21
F0.3
sg22
(lp45
sbag15
(g33
g17
Ntp46
Rp47
(dp48
g21
F0.3
sg22
(lp49
sbag15
(g33
g17
Ntp50
Rp51
(dp52
g21
F0.3
sg22
(lp53
sbag15
(g33
g17
Ntp54
Rp55
(dp56
g21
F0.3
sg22
(lp57
sbag15
(g33
g17
Ntp58
Rp59
(dp60
g21
F0.3
sg22
(lp61
sbag15
(g33
g17
Ntp62
Rp63
(dp64
g21
F0.3
sg22
(lp65
sbag15
(g33
g17
Ntp66
Rp67
(dp68
g21
F0.3
sg22
(lp69
sbasS'innerstates'
p70
(lp71
g15
(cpyIA.agents
Innerstate
p72
g17
Ntp73
Rp74
(dp75
S'permissivity'
p76
F0.5
sS'patience'
p77
I1
sS'perceptivity'
p78
F0.9
sS'goal'
p79
(lp80
cnumpy.core.multiarray
scalar
p81
(cnumpy
dtype
p82
(S'f8'
p83
I0
I1
tp84
Rp85
(I3
S'<'
p86
NNNI-1
I-1
I0
tp87
bS'\xa2\xe7y\xd6\xce\xb8\x19\xc0'
p88
tp89
Rp90
ag81
(g85
S'\xd8A\x9dF\xc3,\x19@'
p91
tp92
Rp93
asS'undertaking'
p94
Nsbag15
(g72
g17
Ntp95
Rp96
(dp97
g76
F0.5
sg77
I1
sg78
F0.9
sg79
(lp98
g81
(g85
S'\xa0e\xf1\x817q\x10\xc0'
p99
tp100
Rp101
ag81
(g85
S'\xb3khzjQ&\xc0'
p102
tp103
Rp104
asg94
Nsbag15
(g72
g17
Ntp105
Rp106
(dp107
g76
F0.5
sg77
I1
sg78
F0.9
sg79
(lp108
g81
(g85
S'\xad\xaa\xaa\xb3\xaa\xaa"\xc0'
p109
tp110
Rp111
ag81
(g85
S" 'p2`[\xe7?"
p112
tp113
Rp114
asg94
Nsbag15
(g72
g17
Ntp115
Rp116
(dp117
g76
F0.5
sg77
I1
sg78
F0.9
sg79
(lp118
g81
(g85
S'\xf8</bWA\x11\xc0'
p119
tp120
Rp121
ag81
(g85
S't)\xf7\xbe\xb0j\x19@'
p122
tp123
Rp124
asg94
Nsbag15
(g72
g17
Ntp125
Rp126
(dp127
g76
F0.5
sg77
I1
sg78
F0.9
sg79
(lp128
g81
(g85
S'\xccB\x91\xcd}I"\xc0'
p129
tp130
Rp131
ag81
(g85
S'\xfeo\t\x185\x19"\xc0'
p132
tp133
Rp134
asg94
Nsbag15
(g72
g17
Ntp135
Rp136
(dp137
g76
F0.5
sg77
I1
sg78
F0.9
sg79
(lp138
g81
(g85
S'XU\xd5\xe9i\x03\x11\xc0'
p139
tp140
Rp141
ag81
(g85
S'\x90\x83:\x1ci\xd4\xee\xbf'
p142
tp143
Rp144
asg94
Nsbag15
(g72
g17
Ntp145
Rp146
(dp147
g76
F0.5
sg77
I1
sg78
F0.9
sg79
(lp148
g81
(g85
S'\xa0\xe7\xc9\x06\xd9\x0f"\xc0'
p149
tp150
Rp151
ag81
(g85
S'*\xbe"s\t\xa0\x19\xc0'
p152
tp153
Rp154
asg94
Nsbag15
(g72
g17
Ntp155
Rp156
(dp157
g76
F0.5
sg77
I1
sg78
F0.9
sg79
(lp158
g81
(g85
S'\xa0\xe7\xc9\x06\xd9\x0f"\xc0'
p159
tp160
Rp161
ag81
(g85
S'\x9cr\xe9U\xe8\xb0\x18@'
p162
tp163
Rp164
asg94
Nsbag15
(g72
g17
Ntp165
Rp166
(dp167
g76
F0.5
sg77
I1
sg78
F0.9
sg79
(lp168
g81
(g85
S'\xa0\xe7\xc9\x06\xd9\x0f"\xc0'
p169
tp170
Rp171
ag81
(g85
S'\x14_Qx\xfa\xf8&\xc0'
p172
tp173
Rp174
asg94
Nsbag15
(g72
g17
Ntp175
Rp176
(dp177
g76
F0.5
sg77
I1
sg78
F0.9
sg79
(lp178
g81
(g85
S'85uC\xd7\x81#\xc0'
p179
tp180
Rp181
ag81
(g85
S'\xb4\xfb\xcf\xa2\xe4\xbd\x14@'
p182
tp183
Rp184
asg94
NsbasS'xystates'
p185
(lp186
(lp187
g81
(g85
S'd\x18\xc6\xe5\xf3<\x19\xc0'
p188
tp189
Rp190
ag81
(g85
S'Fk$\xbc\x03\xda&\xc0'
p191
tp192
Rp193
aa(lp194
g81
(g85
S'WU\xe5\xd8i\x83#\xc0'
p195
tp196
Rp197
ag81
(g85
S'\xb4\xf8J\xd0\x10\xd2\x14@'
p198
tp199
Rp200
aa(lp201
g81
(g85
S'|\x9e\xc7\x80\xa1I\x10\xc0'
p202
tp203
Rp204
ag81
(g85
S'\x08\x9cp\xcb(^&\xc0'
p205
tp206
Rp207
aa(lp208
g81
(g85
S'\xad\xaa\xaa\xb3\xaa\xaa"\xc0'
p209
tp210
Rp211
ag81
(g85
S" 'p2`[\xe7?"
p212
tp213
Rp214
aa(lp215
g81
(g85
S'\xf8</bWA\x11\xc0'
p216
tp217
Rp218
ag81
(g85
S't)\xf7\xbe\xb0j\x19@'
p219
tp220
Rp221
aa(lp222
g81
(g85
S'p\xdb\xf6\xc2\xcf."\xc0'
p223
tp224
Rp225
ag81
(g85
S'\x14_\xf1\x98\x7f\xe4!\xc0'
p226
tp227
Rp228
aa(lp229
g81
(g85
S'XU\xd5\xe9i\x03\x11\xc0'
p230
tp231
Rp232
ag81
(g85
S'\x90\x83:\x1ci\xd4\xee\xbf'
p233
tp234
Rp235
aa(lp236
g81
(g85
S'\xa0\xe7\xc9\x06\xd9\x0f"\xc0'
p237
tp238
Rp239
ag81
(g85
S'\x8a\xd6\xc8\xfa\x1bb\x19\xc0'
p240
tp241
Rp242
aa(lp243
g81
(g85
S'\xa0\xe7\xc9\x06\xd9\x0f"\xc0'
p244
tp245
Rp246
ag81
(g85
S'\x9cr\xe9U\xe8\xb0\x18@'
p247
tp248
Rp249
aa(lp250
g81
(g85
S'\xa0\xe7\xc9\x06\xd9\x0f"\xc0'
p251
tp252
Rp253
ag81
(g85
S'\x14_Qx\xfa\xf8&\xc0'
p254
tp255
Rp256
aas.