(dp0
S'uvstates'
p1
(lp2
(lp3
F0.0
aF0.0
aa(lp4
F0.0
aF0.0
aa(lp5
F0.0
aF0.0
aa(lp6
F0.0
aF0.0
aa(lp7
F0.0
aF0.0
aa(lp8
F0.0
aF0.0
aa(lp9
F0.0
aF0.0
aa(lp10
F0.0
aF0.0
aa(lp11
F0.0
aF0.0
aa(lp12
F0.0
aF0.0
aa(lp13
F0.0
aF0.0
aa(lp14
F0.0
aF0.0
aa(lp15
F0.0
aF0.0
aa(lp16
F0.0
aF0.0
aa(lp17
F0.0
aF0.0
aa(lp18
F0.0
aF0.0
aa(lp19
F0.0
aF0.0
aa(lp20
F0.0
aF0.0
aa(lp21
F0.0
aF0.0
aa(lp22
F0.0
aF0.0
aa(lp23
F0.0
aF0.0
aa(lp24
F0.0
aF0.0
aa(lp25
F0.0
aF0.0
aa(lp26
F0.0
aF0.0
aa(lp27
F0.0
aF0.0
aa(lp28
F0.0
aF0.0
aa(lp29
F0.0
aF0.0
aasS'agents'
p30
(lp31
ccopy_reg
_reconstructor
p32
(cpyIA.agents
Robot
p33
c__builtin__
object
p34
Ntp35
Rp36
(dp37
S'radius'
p38
F0.3
sS'actions'
p39
(lp40
g32
(cpyIA.actions
Intend
p41
g34
Ntp42
Rp43
ag32
(cpyIA.actions
Say
p44
g34
Ntp45
Rp46
ag32
(cpyIA.actions
Nudge
p47
g34
Ntp48
Rp49
asbag32
(cpyIA.agents
Person
p50
g34
Ntp51
Rp52
(dp53
g38
F0.3
sg39
(lp54
sbag32
(g50
g34
Ntp55
Rp56
(dp57
g38
F0.3
sg39
(lp58
sbag32
(g50
g34
Ntp59
Rp60
(dp61
g38
F0.3
sg39
(lp62
sbag32
(g50
g34
Ntp63
Rp64
(dp65
g38
F0.3
sg39
(lp66
sbag32
(g50
g34
Ntp67
Rp68
(dp69
g38
F0.3
sg39
(lp70
sbag32
(g50
g34
Ntp71
Rp72
(dp73
g38
F0.3
sg39
(lp74
sbag32
(g50
g34
Ntp75
Rp76
(dp77
g38
F0.3
sg39
(lp78
sbag32
(g50
g34
Ntp79
Rp80
(dp81
g38
F0.3
sg39
(lp82
sbag32
(g50
g34
Ntp83
Rp84
(dp85
g38
F0.3
sg39
(lp86
sbag32
(g50
g34
Ntp87
Rp88
(dp89
g38
F0.3
sg39
(lp90
sbag32
(g50
g34
Ntp91
Rp92
(dp93
g38
F0.3
sg39
(lp94
sbag32
(g50
g34
Ntp95
Rp96
(dp97
g38
F0.3
sg39
(lp98
sbag32
(g50
g34
Ntp99
Rp100
(dp101
g38
F0.3
sg39
(lp102
sbag32
(g50
g34
Ntp103
Rp104
(dp105
g38
F0.3
sg39
(lp106
sbag32
(g50
g34
Ntp107
Rp108
(dp109
g38
F0.3
sg39
(lp110
sbag32
(g50
g34
Ntp111
Rp112
(dp113
g38
F0.3
sg39
(lp114
sbag32
(g50
g34
Ntp115
Rp116
(dp117
g38
F0.3
sg39
(lp118
sbag32
(g50
g34
Ntp119
Rp120
(dp121
g38
F0.3
sg39
(lp122
sbag32
(g50
g34
Ntp123
Rp124
(dp125
g38
F0.3
sg39
(lp126
sbag32
(g50
g34
Ntp127
Rp128
(dp129
g38
F0.3
sg39
(lp130
sbag32
(g50
g34
Ntp131
Rp132
(dp133
g38
F0.3
sg39
(lp134
sbag32
(g50
g34
Ntp135
Rp136
(dp137
g38
F0.3
sg39
(lp138
sbag32
(g50
g34
Ntp139
Rp140
(dp141
g38
F0.3
sg39
(lp142
sbag32
(g50
g34
Ntp143
Rp144
(dp145
g38
F0.3
sg39
(lp146
sbag32
(g50
g34
Ntp147
Rp148
(dp149
g38
F0.3
sg39
(lp150
sbag32
(g50
g34
Ntp151
Rp152
(dp153
g38
F0.3
sg39
(lp154
sbasS'innerstates'
p155
(lp156
g32
(cpyIA.agents
Innerstate
p157
g34
Ntp158
Rp159
(dp160
S'permissivity'
p161
F0.5
sS'patience'
p162
I1
sS'perceptivity'
p163
F0.9
sS'goal'
p164
(lp165
cnumpy.core.multiarray
scalar
p166
(cnumpy
dtype
p167
(S'f8'
p168
I0
I1
tp169
Rp170
(I3
S'<'
p171
NNNI-1
I-1
I0
tp172
bS'$\x9f\x07\x03!\x9c\x1a\xc0'
p173
tp174
Rp175
ag166
(g170
S"@\xfa\xbf\x08'&\x05\xc0"
p176
tp177
Rp178
asS'undertaking'
p179
Nsbag32
(g157
g34
Ntp180
Rp181
(dp182
g161
F0.5
sg162
I1
sg163
F0.9
sg164
(lp183
g166
(g170
S'\x00uA\xc2\x10\xa2\x01\xc0'
p184
tp185
Rp186
ag166
(g170
S'\\\xb63V\xe6?\x0b\xc0'
p187
tp188
Rp189
asg179
Nsbag32
(g157
g34
Ntp190
Rp191
(dp192
g161
F0.5
sg162
I1
sg163
F0.9
sg164
(lp193
g166
(g170
S'\xe0\xc2\x81\x12t\xf8\t\xc0'
p194
tp195
Rp196
ag166
(g170
S'\x84\x05\xc1u\x0e}\x11\xc0'
p197
tp198
Rp199
asg179
Nsbag32
(g157
g34
Ntp200
Rp201
(dp202
g161
F0.5
sg162
I1
sg163
F0.9
sg164
(lp203
g166
(g170
S'\x88#\x99\x85)\xf4\x08\xc0'
p204
tp205
Rp206
ag166
(g170
S'\xe4\xe5\x959\xad\xfa\x06\xc0'
p207
tp208
Rp209
asg179
Nsbag32
(g157
g34
Ntp210
Rp211
(dp212
g161
F0.5
sg162
I1
sg163
F0.9
sg164
(lp213
g166
(g170
S'\xd8\xd8\xfe\x8d\x15\xaa\x0f\xc0'
p214
tp215
Rp216
ag166
(g170
S'Do\x01KVM\x02\xc0'
p217
tp218
Rp219
asg179
Nsbag32
(g157
g34
Ntp220
Rp221
(dp222
g161
F0.5
sg162
I1
sg163
F0.9
sg164
(lp223
g166
(g170
S'\xc0[\x1en\x01_\xf1\xbf'
p224
tp225
Rp226
ag166
(g170
S'\xe0pT\xf7}\xd3\t\xc0'
p227
tp228
Rp229
asg179
Nsbag32
(g157
g34
Ntp230
Rp231
(dp232
g161
F0.5
sg162
I1
sg163
F0.9
sg164
(lp233
g166
(g170
S'0\xef=\x1d\xcd!\xfb\xbf'
p234
tp235
Rp236
ag166
(g170
S'4\x1c\x06bG\x19\x02\xc0'
p237
tp238
Rp239
asg179
Nsbag32
(g157
g34
Ntp240
Rp241
(dp242
g161
F0.5
sg162
I1
sg163
F0.9
sg164
(lp243
g166
(g170
S'\xf8\xff\xff\x7f\xe1z\x04\xc0'
p244
tp245
Rp246
ag166
(g170
S'p"\x8fH\xed\x80\xfe\xbf'
p247
tp248
Rp249
asg179
Nsbag32
(g157
g34
Ntp250
Rp251
(dp252
g161
F0.5
sg162
I1
sg163
F0.9
sg164
(lp253
g166
(g170
S'\xc0\x87\x18eD\xc2\xfc\xbf'
p254
tp255
Rp256
ag166
(g170
S'8\xaa\xa7\xadnM\xf2\xbf'
p257
tp258
Rp259
asg179
Nsbag32
(g157
g34
Ntp260
Rp261
(dp262
g161
F0.5
sg162
I1
sg163
F0.9
sg164
(lp263
g166
(g170
S'0\xd9\xc0\xa1+p\xf5\xbf'
p264
tp265
Rp266
ag166
(g170
S'\x84\x05\xc1u\x0e}\x11\xc0'
p267
tp268
Rp269
asg179
Nsbag32
(g157
g34
Ntp270
Rp271
(dp272
g161
F0.5
sg162
I1
sg163
F0.9
sg164
(lp273
g166
(g170
S'\x98\xeb\xd5\xb0gO\x06\xc0'
p274
tp275
Rp276
ag166
(g170
S'@*kj\x9d\xe9\xde\xbf'
p277
tp278
Rp279
asg179
Nsbag32
(g157
g34
Ntp280
Rp281
(dp282
g161
F0.5
sg162
I1
sg163
F0.9
sg164
(lp283
g166
(g170
S'\x809\x16\x01\xcb\xa5\x0e\xc0'
p284
tp285
Rp286
ag166
(g170
S'05fk?&\xf5\xbf'
p287
tp288
Rp289
asg179
Nsbag32
(g157
g34
Ntp290
Rp291
(dp292
g161
F0.5
sg162
I1
sg163
F0.9
sg164
(lp293
g166
(g170
S"\xcc\xfaD'\xc5_\x12\xc0"
p294
tp295
Rp296
ag166
(g170
S'@*kj\x9d\xe9\xde\xbf'
p297
tp298
Rp299
asg179
Nsbag32
(g157
g34
Ntp300
Rp301
(dp302
g161
F0.5
sg162
I1
sg163
F0.9
sg164
(lp303
g166
(g170
S"\xcc\xfaD'\xc5_\x12\xc0"
p304
tp305
Rp306
ag166
(g170
S'\xccQ\xae\x19JM\x12\xc0'
p307
tp308
Rp309
asg179
Nsbag32
(g157
g34
Ntp310
Rp311
(dp312
g161
F0.5
sg162
I1
sg163
F0.9
sg164
(lp313
g166
(g170
S'\xe0\x0c\x98bz;\xf3?'
p314
tp315
Rp316
ag166
(g170
S'\xa4"\xf0J\x16\xe9\x18@'
p317
tp318
Rp319
asg179
Nsbag32
(g157
g34
Ntp320
Rp321
(dp322
g161
F0.5
sg162
I1
sg163
F0.9
sg164
(lp323
g166
(g170
S'h\xfc\x97\xd3\xec\xe5\x19\xc0'
p324
tp325
Rp326
ag166
(g170
S"\xfb\xb7U\x1e\xa6!'\xc0"
p327
tp328
Rp329
asg179
Nsbag32
(g157
g34
Ntp330
Rp331
(dp332
g161
F0.5
sg162
I1
sg163
F0.9
sg164
(lp333
g166
(g170
S'H\xc1.fLr\x02\xc0'
p334
tp335
Rp336
ag166
(g170
S"@\xfa\xbf\x08'&\x05\xc0"
p337
tp338
Rp339
asg179
Nsbag32
(g157
g34
Ntp340
Rp341
(dp342
g161
F0.5
sg162
I1
sg163
F0.9
sg164
(lp343
g166
(g170
S'\xc8{O\x07\xe4\x05\x01\xc0'
p344
tp345
Rp346
ag166
(g170
S'\xe8\x08H\x18\xf8.\x11\xc0'
p347
tp348
Rp349
asg179
Nsbag32
(g157
g34
Ntp350
Rp351
(dp352
g161
F0.5
sg162
I1
sg163
F0.9
sg164
(lp353
g166
(g170
S'\xf8\x8a\xbe=\xb2S\x07\xc0'
p354
tp355
Rp356
ag166
(g170
S'\xecN\x0e\x9e]\xe0\x0c\xc0'
p357
tp358
Rp359
asg179
Nsbag32
(g157
g34
Ntp360
Rp361
(dp362
g161
F0.5
sg162
I1
sg163
F0.9
sg164
(lp363
g166
(g170
S'\x90l\xe0P\xf72\xff\xbf'
p364
tp365
Rp366
ag166
(g170
S'\x00\xf9\xb5\xda\xae\xa8\xdb\xbf'
p367
tp368
Rp369
asg179
Nsbag32
(g157
g34
Ntp370
Rp371
(dp372
g161
F0.5
sg162
I1
sg163
F0.9
sg164
(lp373
g166
(g170
S'P\xf4\xf8\xb5x\xff\xf2\xbf'
p374
tp375
Rp376
ag166
(g170
S'p\x97\xd0\x8a\x1c\xa8\xfb\xbf'
p377
tp378
Rp379
asg179
Nsbag32
(g157
g34
Ntp380
Rp381
(dp382
g161
F0.5
sg162
I1
sg163
F0.9
sg164
(lp383
g166
(g170
S'X\x93\x1f/\xad=\x0e\xc0'
p384
tp385
Rp386
ag166
(g170
S'@\xc6\xeaD\xbd\xb5\xe2\xbf'
p387
tp388
Rp389
asg179
Nsbag32
(g157
g34
Ntp390
Rp391
(dp392
g161
F0.5
sg162
I1
sg163
F0.9
sg164
(lp393
g166
(g170
S'\xa0\x8bB\xe5\xbfZ\xe7\xbf'
p394
tp395
Rp396
ag166
(g170
S'`\xf7\x9f\xd4\xab\xf6\xe5\xbf'
p397
tp398
Rp399
asg179
Nsbag32
(g157
g34
Ntp400
Rp401
(dp402
g161
F0.5
sg162
I1
sg163
F0.9
sg164
(lp403
g166
(g170
S'\x08\x03\xc5ND)\x14@'
p404
tp405
Rp406
ag166
(g170
S'\xbc_n\xb8\x83k\x13@'
p407
tp408
Rp409
asg179
Nsbag32
(g157
g34
Ntp410
Rp411
(dp412
g161
F0.5
sg162
I1
sg163
F0.9
sg164
(lp413
g166
(g170
S'h\xfc\x97s4\xc7$\xc0'
p414
tp415
Rp416
ag166
(g170
S'\xf4X`s\xb0\x07\x14@'
p417
tp418
Rp419
asg179
Nsbag32
(g157
g34
Ntp420
Rp421
(dp422
g161
F0.5
sg162
I1
sg163
F0.9
sg164
(lp423
g166
(g170
S'\x98\x06-[\xf1\xdc#\xc0'
p424
tp425
Rp426
ag166
(g170
S'\x96X\xbc^\x1d\xb1\x11\xc0'
p427
tp428
Rp429
asg179
Nsbag32
(g157
g34
Ntp430
Rp431
(dp432
g161
F0.5
sg162
I1
sg163
F0.9
sg164
(lp433
g166
(g170
S'P\xff{\xd8\xd3s\xf4?'
p434
tp435
Rp436
ag166
(g170
S"H6\x12M\xb1H'\xc0"
p437
tp438
Rp439
asg179
NsbasS'xystates'
p440
(lp441
(lp442
g166
(g170
S'p\xa5r\xaa\xf1\xdb\xf4?'
p443
tp444
Rp445
ag166
(g170
S'0\xa7\xc4\x1f\x18\xf2\x04\xc0'
p446
tp447
Rp448
aa(lp449
g166
(g170
S'\x00uA\xc2\x10\xa2\x01\xc0'
p450
tp451
Rp452
ag166
(g170
S'\xa4\x02!\xfa!\x10\x0c\xc0'
p453
tp454
Rp455
aa(lp456
g166
(g170
S'\xe0\xc2\x81\x12t\xf8\t\xc0'
p457
tp458
Rp459
ag166
(g170
S'\x0c\xaf>\xea\x15\x97\x11\xc0'
p460
tp461
Rp462
aa(lp463
g166
(g170
S'\x88#\x99\x85)\xf4\x08\xc0'
p464
tp465
Rp466
ag166
(g170
S'\xd0\x92\x9aP\x9e\xc6\x06\xc0'
p467
tp468
Rp469
aa(lp470
g166
(g170
S'P\x7f\xb7sI\xd8\xf5\xbf'
p471
tp472
Rp473
ag166
(g170
S'\xfa[C\x01\x07c\x11\xc0'
p474
tp475
Rp476
aa(lp477
g166
(g170
S'\xf0\x01\x15@\x1f\xc7\xf1\xbf'
p478
tp479
Rp480
ag166
(g170
S'\xcc\x1dY\x0eo\x9f\t\xc0'
p481
tp482
Rp483
aa(lp484
g166
(g170
S'\x00IGK\xaf\xb9\xfa\xbf'
p485
tp486
Rp487
ag166
(g170
S'h\x15\xf8\x1ct\xb5\x02\xc0'
p488
tp489
Rp490
aa(lp491
g166
(g170
S'@L\xed#\x1dK\x05\xc0'
p492
tp493
Rp494
ag166
(g170
S'p"\x8fH\xed\x80\xfe\xbf'
p495
tp496
Rp497
aa(lp498
g166
(g170
S'\xc0\x87\x18eD\xc2\xfc\xbf'
p499
tp500
Rp501
ag166
(g170
S'\x80\xf6\x94Q\xaa\x1d\xf3\xbf'
p502
tp503
Rp504
aa(lp505
g166
(g170
S'\xa0\x8bB\xe5\xbfZ\xe7\xbf'
p506
tp507
Rp508
ag166
(g170
S' \xab\xb20p&\xe5\xbf'
p509
tp510
Rp511
aa(lp512
g166
(g170
S'\x98\xeb\xd5\xb0gO\x06\xc0'
p513
tp514
Rp515
ag166
(g170
S'@*kj\x9d\xe9\xde\xbf'
p516
tp517
Rp518
aa(lp519
g166
(g170
S'\xb02\x08\xbc\xf7A\x0f\xc0'
p520
tp521
Rp522
ag166
(g170
S'\x10\x8fo\x99!\xbe\xf4\xbf'
p523
tp524
Rp525
aa(lp526
g166
(g170
S"\xcc\xfaD'\xc5_\x12\xc0"
p527
tp528
Rp529
ag166
(g170
S'\xc0\x91\x90"&I\xdd\xbf'
p530
tp531
Rp532
aa(lp533
g166
(g170
S'DQ\xc7\xb2\xbdE\x12\xc0'
p534
tp535
Rp536
ag166
(g170
S'T\xfb+\x8eQg\x12\xc0'
p537
tp538
Rp539
aa(lp540
g166
(g170
S'\xf0\xa5\x15H\xf4\xff\x19\xc0'
p541
tp542
Rp543
ag166
(g170
S"r\x0e\xd8\xa9\x9e\x07'\xc0"
p544
tp545
Rp546
aa(lp547
g166
(g170
S'\x00\xb3\x8e4\x98\xa3\xf3?'
p548
tp549
Rp550
ag166
(g170
S'\xa4"\xf0J\x16\xe9\x18@'
p551
tp552
Rp553
aa(lp554
g166
(g170
S'X\x14*O[\xa6\x02\xc0'
p555
tp556
Rp557
ag166
(g170
S'\x1cT\xc96\t\xbe\x04\xc0'
p558
tp559
Rp560
aa(lp561
g166
(g170
S'\xd8\xceJ\xf0\xf29\x01\xc0'
p562
tp563
Rp564
ag166
(g170
S'\xe8\x08H\x18\xf8.\x11\xc0'
p565
tp566
Rp567
aa(lp568
g166
(g170
S'\x08\xde\xb9&\xc1\x87\x07\xc0'
p569
tp570
Rp571
ag166
(g170
S'\xb8U\x1c\xe30D\x0c\xc0'
p572
tp573
Rp574
aa(lp575
g166
(g170
S'\x90l\xe0P\xf72\xff\xbf'
p576
tp577
Rp578
ag166
(g170
S'\xc0\x91\x90"&I\xdd\xbf'
p579
tp580
Rp581
aa(lp582
g166
(g170
S'P\xf4\xf8\xb5x\xff\xf2\xbf'
p583
tp584
Rp585
ag166
(g170
S'P\xf1\xd9\xb8\xfe?\xfb\xbf'
p586
tp587
Rp588
aa(lp589
g166
(g170
S'X\x93\x1f/\xad=\x0e\xc0'
p590
tp591
Rp592
ag166
(g170
S'\xa0-\x10\xfdE\x15\xe1\xbf'
p593
tp594
Rp595
aa(lp596
g166
(g170
S'\xc8\x85\x03\xa5\x06v\x0f\xc0'
p597
tp598
Rp599
ag166
(g170
S'Do\x01KVM\x02\xc0'
p600
tp601
Rp602
aa(lp603
g166
(g170
S'P\xff{\xd8\xd3s\xf4?'
p604
tp605
Rp606
ag166
(g170
S"\x84a\xd3\x92\xad;'\xc0"
p607
tp608
Rp609
aa(lp610
g166
(g170
S'\x90\xacB\xc3KC\x14@'
p611
tp612
Rp613
ag166
(g170
S'\xd0\xb2i\xa1\x92\x9f\x13@'
p614
tp615
Rp616
aa(lp617
g166
(g170
S'h\xfc\x97s4\xc7$\xc0'
p618
tp619
Rp620
ag166
(g170
S'\xf4X`s\xb0\x07\x14@'
p621
tp622
Rp623
aa(lp624
g166
(g170
S'\x98\x06-[\xf1\xdc#\xc0'
p625
tp626
Rp627
ag166
(g170
S'\x96X\xbc^\x1d\xb1\x11\xc0'
p628
tp629
Rp630
aas.