(dp0
S'uvstates'
p1
(lp2
(lp3
F0.0
aF0.0
aasS'agents'
p4
(lp5
ccopy_reg
_reconstructor
p6
(cpyIA.agents
Robot
p7
c__builtin__
object
p8
Ntp9
Rp10
(dp11
S'radius'
p12
F0.3
sS'actions'
p13
(lp14
g6
(cpyIA.actions
Intend
p15
g8
Ntp16
Rp17
ag6
(cpyIA.actions
Say
p18
g8
Ntp19
Rp20
ag6
(cpyIA.actions
Nudge
p21
g8
Ntp22
Rp23
asbasS'innerstates'
p24
(lp25
g6
(cpyIA.agents
Innerstate
p26
g8
Ntp27
Rp28
(dp29
S'permissivity'
p30
F0.5
sS'patience'
p31
I1
sS'perceptivity'
p32
F0.9
sS'goal'
p33
(lp34
cnumpy.core.multiarray
scalar
p35
(cnumpy
dtype
p36
(S'f8'
p37
I0
I1
tp38
Rp39
(I3
S'<'
p40
NNNI-1
I-1
I0
tp41
bS'fW\xcd\xa7\xfer\x1c\xc0'
p42
tp43
Rp44
ag35
(g39
S'\xee\x13\xf5\x95\xc5& \xc0'
p45
tp46
Rp47
asS'undertaking'
p48
NsbasS'xystates'
p49
(lp50
(lp51
g35
(g39
S',1\xb6\xbf\xaf\xc6 \xc0'
p52
tp53
Rp54
ag35
(g39
S't\xf1\x8f\x18A\xba\x13\xc0'
p55
tp56
Rp57
aas.