(dp0
S'uvstates'
p1
(lp2
(lp3
F0.0
aF0.0
aa(lp4
F0.0
aF0.0
aa(lp5
F0.0
aF0.0
aa(lp6
F0.0
aF0.0
aa(lp7
F0.0
aF0.0
aa(lp8
F0.0
aF0.0
aa(lp9
F0.0
aF0.0
aa(lp10
F0.0
aF0.0
aasS'agents'
p11
(lp12
ccopy_reg
_reconstructor
p13
(cpyIA.agents
Robot
p14
c__builtin__
object
p15
Ntp16
Rp17
(dp18
S'radius'
p19
F0.3
sS'actions'
p20
(lp21
g13
(cpyIA.actions
Intend
p22
g15
Ntp23
Rp24
ag13
(cpyIA.actions
Say
p25
g15
Ntp26
Rp27
ag13
(cpyIA.actions
Nudge
p28
g15
Ntp29
Rp30
asbag13
(cpyIA.agents
Person
p31
g15
Ntp32
Rp33
(dp34
g19
F0.3
sg20
(lp35
sbag13
(g31
g15
Ntp36
Rp37
(dp38
g19
F0.3
sg20
(lp39
sbag13
(g31
g15
Ntp40
Rp41
(dp42
g19
F0.3
sg20
(lp43
sbag13
(g31
g15
Ntp44
Rp45
(dp46
g19
F0.3
sg20
(lp47
sbag13
(g31
g15
Ntp48
Rp49
(dp50
g19
F0.3
sg20
(lp51
sbag13
(g31
g15
Ntp52
Rp53
(dp54
g19
F0.3
sg20
(lp55
sbag13
(g31
g15
Ntp56
Rp57
(dp58
g19
F0.3
sg20
(lp59
sbasS'innerstates'
p60
(lp61
g13
(cpyIA.agents
Innerstate
p62
g15
Ntp63
Rp64
(dp65
S'permissivity'
p66
F0.5
sS'patience'
p67
I1
sS'perceptivity'
p68
F0.9
sS'goal'
p69
(lp70
cnumpy.core.multiarray
scalar
p71
(cnumpy
dtype
p72
(S'f8'
p73
I0
I1
tp74
Rp75
(I3
S'<'
p76
NNNI-1
I-1
I0
tp77
bS'u\x00\xce\xb8\x1d75\xc0'
p78
tp79
Rp80
ag71
(g75
S'\xf0f\x17\xa9,\xa3\x00\xc0'
p81
tp82
Rp83
asS'undertaking'
p84
Nsbag13
(g62
g15
Ntp85
Rp86
(dp87
g66
F0.5
sg67
I1
sg68
F0.9
sg69
(lp88
g71
(g75
S'\x17\xd0W\x10[\x035\xc0'
p89
tp90
Rp91
ag71
(g75
S'\x18\xde*\xddD\xb3\x11\xc0'
p92
tp93
Rp94
asg84
Nsbag13
(g62
g15
Ntp95
Rp96
(dp97
g66
F0.5
sg67
I1
sg68
F0.9
sg69
(lp98
g71
(g75
S'\xec\xc1\xa6Z(\x066\xc0'
p99
tp100
Rp101
ag71
(g75
S'\xd0:\x8eK\xf9\x84\x04\xc0'
p102
tp103
Rp104
asg84
Nsbag13
(g62
g15
Ntp105
Rp106
(dp107
g66
F0.5
sg67
I1
sg68
F0.9
sg69
(lp108
g71
(g75
S'^\x88\xe1\xb1\x04I4\xc0'
p109
tp110
Rp111
ag71
(g75
S'`3A\xefI\x8c\x0e\xc0'
p112
tp113
Rp114
asg84
Nsbag13
(g62
g15
Ntp115
Rp116
(dp117
g66
F0.5
sg67
I1
sg68
F0.9
sg69
(lp118
g71
(g75
S'\tl\x7fF\x9fN6\xc0'
p119
tp120
Rp121
ag71
(g75
S'\x80\xfb\xf1\x82\xc1\xf5\x0b\xc0'
p122
tp123
Rp124
asg84
Nsbag13
(g62
g15
Ntp125
Rp126
(dp127
g66
F0.5
sg67
I1
sg68
F0.9
sg69
(lp128
g71
(g75
S'\xc0\xd1\xcdL\xf6)4\xc0'
p129
tp130
Rp131
ag71
(g75
S"\xa0'{\xe0\xf4\x13\x08\xc0"
p132
tp133
Rp134
asg84
Nsbag13
(g62
g15
Ntp135
Rp136
(dp137
g66
F0.5
sg67
I1
sg68
F0.9
sg69
(lp138
g71
(g75
S'\xfd>\xf5\x16\x13h4\xc0'
p139
tp140
Rp141
ag71
(g75
S'\xe0\x1b\xb5\xd1\x9f\x9b\x01\xc0'
p142
tp143
Rp144
asg84
Nsbag13
(g62
g15
Ntp145
Rp146
(dp147
g66
F0.5
sg67
I1
sg68
F0.9
sg69
(lp148
g71
(g75
S'\xafT\x7f\x90\x0b\xc85\xc0'
p149
tp150
Rp151
ag71
(g75
S' )\x8d\xb4\xd1\xba\x10\xc0'
p152
tp153
Rp154
asg84
NsbasS'xystates'
p155
(lp156
(lp157
g71
(g75
S'\xf6\x0c\t2\xb5\r5\xc0'
p158
tp159
Rp160
ag71
(g75
S'\x98\x03\xdcH\x0b7\x11\xc0'
p161
tp162
Rp163
aa(lp164
g71
(g75
S'u\x00\xce\xb8\x1d75\xc0'
p165
tp166
Rp167
ag71
(g75
S'\xf0f\x17\xa9,\xa3\x00\xc0'
p168
tp169
Rp170
aa(lp171
g71
(g75
S'^\x88\xe1\xb1\x04I4\xc0'
p172
tp173
Rp174
ag71
(g75
S'`3A\xefI\x8c\x0e\xc0'
p175
tp176
Rp177
aa(lp178
g71
(g75
S'\xec\xc1\xa6Z(\x066\xc0'
p179
tp180
Rp181
ag71
(g75
S'\xd0:\x8eK\xf9\x84\x04\xc0'
p182
tp183
Rp184
aa(lp185
g71
(g75
S'\x9f\x0e\x7fnP44\xc0'
p186
tp187
Rp188
ag71
(g75
S'\xa0@\xf1\xd2#\xc1\x07\xc0'
p189
tp190
Rp191
aa(lp192
g71
(g75
S'\tl\x7fF\x9fN6\xc0'
p193
tp194
Rp195
ag71
(g75
S'\x80\xfb\xf1\x82\xc1\xf5\x0b\xc0'
p196
tp197
Rp198
aa(lp199
g71
(g75
S'\xcf\x17\xcen\xb1\xbd5\xc0'
p200
tp201
Rp202
ag71
(g75
S'\xa05\xc8-i\x91\x10\xc0'
p203
tp204
Rp205
aa(lp206
g71
(g75
S'\xfd>\xf5\x16\x13h4\xc0'
p207
tp208
Rp209
ag71
(g75
S'\xe0\x1b\xb5\xd1\x9f\x9b\x01\xc0'
p210
tp211
Rp212
aas.