(dp0
I0
ccopy_reg
_reconstructor
p1
(cpyniel.data_structures.graph
Node
p2
c__builtin__
object
p3
Ntp4
Rp5
(dp6
S'edges'
p7
c__builtin__
set
p8
((lp9
I1
aI2
aI52
atp10
Rp11
sS'coords'
p12
cnumpy.core.multiarray
_reconstruct
p13
(cnumpy
ndarray
p14
(I0
tp15
S'b'
p16
tp17
Rp18
(I1
(I2
tp19
cnumpy
dtype
p20
(S'f8'
p21
I0
I1
tp22
Rp23
(I3
S'<'
p24
NNNI-1
I-1
I0
tp25
bI00
S'\xb0g\x11\x06\xe0\xa1&\xc0\xe6\xf5\xb3\xe4\xf3\x05&@'
p26
tp27
bsbsI1
g1
(g2
g3
Ntp28
Rp29
(dp30
g7
g8
((lp31
I0
aI2
aI52
atp32
Rp33
sg12
g13
(g14
(I0
tp34
g16
tp35
Rp36
(I1
(I2
tp37
g23
I00
S'<\xd1\xe1\xa9\xbc\xe9 \xc0\x06A\xdb;\xaf\xf5%@'
p38
tp39
bsbsI2
g1
(g2
g3
Ntp40
Rp41
(dp42
g7
g8
((lp43
I0
aI1
aI3
aI52
atp44
Rp45
sg12
g13
(g14
(I0
tp46
g16
tp47
Rp48
(I1
(I2
tp49
g23
I00
S'D*\x1cc\x97g \xc0\x00#\xf2\xf5\x0b\x93\x1e@'
p50
tp51
bsbsI3
g1
(g2
g3
Ntp52
Rp53
(dp54
g7
g8
((lp55
I2
aI4
aI26
atp56
Rp57
sg12
g13
(g14
(I0
tp58
g16
tp59
Rp60
(I1
(I2
tp61
g23
I00
S'\x04{KZ\xa4\xb3\x12\xc0D\xb9@\xa4\x82r\x1e@'
p62
tp63
bsbsI4
g1
(g2
g3
Ntp64
Rp65
(dp66
g7
g8
((lp67
I3
aI53
atp68
Rp69
sg12
g13
(g14
(I0
tp70
g16
tp71
Rp72
(I1
(I2
tp73
g23
I00
S'\x80N\xae\xfd\xb6\xf4\x12\xc0\x0e\x9a\x15\xf5\x89s%@'
p74
tp75
bsbsI5
g1
(g2
g3
Ntp76
Rp77
(dp78
g7
g8
((lp79
I53
aI6
atp80
Rp81
sg12
g13
(g14
(I0
tp82
g16
tp83
Rp84
(I1
(I2
tp85
g23
I00
S'@_%\xc9\x98\xca\x12@\x8amx\x98\x9c\xb4%@'
p86
tp87
bsbsI6
g1
(g2
g3
Ntp88
Rp89
(dp90
g7
g8
((lp91
I11
aI5
aI7
atp92
Rp93
sg12
g13
(g14
(I0
tp94
g16
tp95
Rp96
(I1
(I2
tp97
g23
I00
S'\xc8\x8b\xc2%\x86\x89\x12@\xc8\xe5\xdd\x00p1\x1e@'
p98
tp99
bsbsI7
g1
(g2
g3
Ntp100
Rp101
(dp102
g7
g8
((lp103
I8
aI9
aI10
aI6
atp104
Rp105
sg12
g13
(g14
(I0
tp106
g16
tp107
Rp108
(I1
(I2
tp109
g23
I00
S'@\xd1aCV\x83 @\xf4p}\x83V\x97\x1f@'
p110
tp111
bsbsI8
g1
(g2
g3
Ntp112
Rp113
(dp114
g7
g8
((lp115
I9
aI10
aI7
atp116
Rp117
sg12
g13
(g14
(I0
tp118
g16
tp119
Rp120
(I1
(I2
tp121
g23
I00
S'\xd8C\xc1`\xb3_\x1f@\xe6\xf5\xb3\xe4\xf3\x05&@'
p122
tp123
bsbsI9
g1
(g2
g3
Ntp124
Rp125
(dp126
g7
g8
((lp127
I8
aI10
aI7
atp128
Rp129
sg12
g13
(g14
(I0
tp130
g16
tp131
Rp132
(I1
(I2
tp133
g23
I00
S'\xd0Y~=Z\xad&@b\xc9\x16\x88\x06G&@'
p134
tp135
bsbsI10
g1
(g2
g3
Ntp136
Rp137
(dp138
g7
g8
((lp139
I8
aI9
aI7
atp140
Rp141
sg12
g13
(g14
(I0
tp142
g16
tp143
Rp144
(I1
(I2
tp145
g23
I00
S'\xd0Y~=Z\xad&@\xfc\xc9\xb7<1\x15\x1f@'
p146
tp147
bsbsI11
g1
(g2
g3
Ntp148
Rp149
(dp150
g7
g8
((lp151
I12
aI6
aI22
atp152
Rp153
sg12
g13
(g14
(I0
tp154
g16
tp155
Rp156
(I1
(I2
tp157
g23
I00
S'\x90\xa7\xe8\xe9\xc4\xa5\x11@l>V^\xf1\xfd\x11@'
p158
tp159
bsbsI12
g1
(g2
g3
Ntp160
Rp161
(dp162
g7
g8
((lp163
I11
aI19
aI13
aI14
atp164
Rp165
sg12
g13
(g14
(I0
tp166
g16
tp167
Rp168
(I1
(I2
tp169
g23
I00
S'\xe4H&\xf7\xfe1 @\xe0\xb8~H)\xc1\x12@'
p170
tp171
bsbsI13
g1
(g2
g3
Ntp172
Rp173
(dp174
g7
g8
((lp175
I19
aI12
aI14
atp176
Rp177
sg12
g13
(g14
(I0
tp178
g16
tp179
Rp180
(I1
(I2
tp181
g23
I00
S'\xac\x0eW\xe6\x9e\xbd&@d\xe5\x1b\xa5\x16\x80\x12@'
p182
tp183
bsbsI14
g1
(g2
g3
Ntp184
Rp185
(dp186
g7
g8
((lp187
I18
aI12
aI13
aI15
atp188
Rp189
sg12
g13
(g14
(I0
tp190
g16
tp191
Rp192
(I1
(I2
tp193
g23
I00
S't\xd1B\xf1\x02\\&@\x10\xed\xa1\xde\xcf\xb8\xfa?'
p194
tp195
bsbsI15
g1
(g2
g3
Ntp196
Rp197
(dp198
g7
g8
((lp199
I16
aI17
aI19
aI14
atp200
Rp201
sg12
g13
(g14
(I0
tp202
g16
tp203
Rp204
(I1
(I2
tp205
g23
I00
S't\xd1B\xf1\x02\\&@\x00\xd2K\x8a43\xfd\xbf'
p206
tp207
bsbsI16
g1
(g2
g3
Ntp208
Rp209
(dp210
g7
g8
((lp211
I17
aI18
aI15
atp212
Rp213
sg12
g13
(g14
(I0
tp214
g16
tp215
Rp216
(I1
(I2
tp217
g23
I00
S'\xf0\xa4\xa5\x94\x15\x9d&@d!\xf2\xda\x13\xbd\x12\xc0'
p218
tp219
bsbsI17
g1
(g2
g3
Ntp220
Rp221
(dp222
g7
g8
((lp223
I16
aI18
aI20
aI15
atp224
Rp225
sg12
g13
(g14
(I0
tp226
g16
tp227
Rp228
(I1
(I2
tp229
g23
I00
S'\xa0\x06\xadk\x17\xfe\x1e@\xe0\xf4T~&\xfe\x12\xc0'
p230
tp231
bsbsI18
g1
(g2
g3
Ntp232
Rp233
(dp234
g7
g8
((lp235
I16
aI17
aI19
aI14
atp236
Rp237
sg12
g13
(g14
(I0
tp238
g16
tp239
Rp240
(I1
(I2
tp241
g23
I00
S' 3J\xc8\x04\xbd\x1e@\xe8\xddv\x19\n \x00\xc0'
p242
tp243
bsbsI19
g1
(g2
g3
Ntp244
Rp245
(dp246
g7
g8
((lp247
I18
aI12
aI13
aI15
atp248
Rp249
sg12
g13
(g14
(I0
tp250
g16
tp251
Rp252
(I1
(I2
tp253
g23
I00
S'\x18\xda\x0f\x0f*?\x1f@@\x03\x006\xf0\xab\xf7?'
p254
tp255
bsbsI20
g1
(g2
g3
Ntp256
Rp257
(dp258
g7
g8
((lp259
I17
aI21
aI39
atp260
Rp261
sg12
g13
(g14
(I0
tp262
g16
tp263
Rp264
(I1
(I2
tp265
g23
I00
S'\x90\xa7\xe8\xe9\xc4\xa5\x11@\x98\x05\xcc\x16\xd5\xa0\x13\xc0'
p266
tp267
bsbsI21
g1
(g2
g3
Ntp268
Rp269
(dp270
g7
g8
((lp271
I20
aI22
aI38
aI23
atp272
Rp273
sg12
g13
(g14
(I0
tp274
g16
tp275
Rp276
(I1
(I2
tp277
g23
I00
S'\xd0\xe4\xfc\xde`\x07\x12@h\xb1\xd9\xbc\x1ca\x00\xc0'
p278
tp279
bsbsI22
g1
(g2
g3
Ntp280
Rp281
(dp282
g7
g8
((lp283
I11
aI21
aI38
aI23
atp284
Rp285
sg12
g13
(g14
(I0
tp286
g16
tp287
Rp288
(I1
(I2
tp289
g23
I00
S"\xd0\xe4\xfc\xde`\x07\x12@`'K\x937\x13\xef?"
p290
tp291
bsbsI23
g1
(g2
g3
Ntp292
Rp293
(dp294
g7
g8
((lp295
I24
aI21
aI22
atp296
Rp297
sg12
g13
(g14
(I0
tp298
g16
tp299
Rp300
(I1
(I2
tp301
g23
I00
S'\xe0\x0b3I\xa9B\xf4?\x80\xd6\x81+V\x14\xf2?'
p302
tp303
bsbsI24
g1
(g2
g3
Ntp304
Rp305
(dp306
g7
g8
((lp307
I25
aI36
aI23
atp308
Rp309
sg12
g13
(g14
(I0
tp310
g16
tp311
Rp312
(I1
(I2
tp313
g23
I00
S'\x90\xea%\xfa+\t\xfc\xbf\x80$\r\xb9\xa0\x18\xf3?'
p314
tp315
bsbsI25
g1
(g2
g3
Ntp316
Rp317
(dp318
g7
g8
((lp319
I24
aI26
aI36
aI37
atp320
Rp321
sg12
g13
(g14
(I0
tp322
g16
tp323
Rp324
(I1
(I2
tp325
g23
I00
S'|\xf5sD\xdcv\x13\xc0pr\x98F\xeb\x1c\xf4?'
p326
tp327
bsbsI26
g1
(g2
g3
Ntp328
Rp329
(dp330
g7
g8
((lp331
I27
aI25
aI3
atp332
Rp333
sg12
g13
(g14
(I0
tp334
g16
tp335
Rp336
(I1
(I2
tp337
g23
I00
S'\x00"\x11\xa1\xc95\x13\xc00\x01BiU\x9c\x11@'
p338
tp339
bsbsI27
g1
(g2
g3
Ntp340
Rp341
(dp342
g7
g8
((lp343
I26
aI28
aI29
aI30
atp344
Rp345
sg12
g13
(g14
(I0
tp346
g16
tp347
Rp348
(I1
(I2
tp349
g23
I00
S'"\xdf\xf4\x0b\xdcw \xc00\x01BiU\x9c\x11@'
p350
tp351
bsbsI28
g1
(g2
g3
Ntp352
Rp353
(dp354
g7
g8
((lp355
I27
aI29
aI30
atp356
Rp357
sg12
g13
(g14
(I0
tp358
g16
tp359
Rp360
(I1
(I2
tp361
g23
I00
S'\x8e\x1c\xea\xae$\xb2&\xc0$O\xcd\xf6\x9f\xa0\x12@'
p362
tp363
bsbsI29
g1
(g2
g3
Ntp364
Rp365
(dp366
g7
g8
((lp367
I32
aI27
aI28
aI30
aI31
atp368
Rp369
sg12
g13
(g14
(I0
tp370
g16
tp371
Rp372
(I1
(I2
tp373
g23
I00
S'\xb0g\x11\x06\xe0\xa1&\xc0\x10\xed\xa1\xde\xcf\xb8\xfa?'
p374
tp375
bsbsI30
g1
(g2
g3
Ntp376
Rp377
(dp378
g7
g8
((lp379
I32
aI27
aI28
aI29
aI31
atp380
Rp381
sg12
g13
(g14
(I0
tp382
g16
tp383
Rp384
(I1
(I2
tp385
g23
I00
S'\xa6\x0b\x92h\xc96 \xc0\x00;-l\x1a\xbd\xfb?'
p386
tp387
bsbsI31
g1
(g2
g3
Ntp388
Rp389
(dp390
g7
g8
((lp391
I32
aI33
aI34
aI29
aI30
atp392
Rp393
sg12
g13
(g14
(I0
tp394
g16
tp395
Rp396
(I1
(I2
tp397
g23
I00
S'\xe8\xa1\xe0\x16@\x16 \xc00\x9a\x1eT\n"\xf9\xbf'
p398
tp399
bsbsI32
g1
(g2
g3
Ntp400
Rp401
(dp402
g7
g8
((lp403
I33
aI34
aI29
aI30
aI31
atp404
Rp405
sg12
g13
(g14
(I0
tp406
g16
tp407
Rp408
(I1
(I2
tp409
g23
I00
S'\xd8\x0bs\x16v\x0f&\xc00\xf3X\r\xe5\x9f\xf8\xbf'
p410
tp411
bsbsI33
g1
(g2
g3
Ntp412
Rp413
(dp414
g7
g8
((lp415
I32
aI34
aI31
atp416
Rp417
sg12
g13
(g14
(I0
tp418
g16
tp419
Rp420
(I1
(I2
tp421
g23
I00
S't*\xfd\x10D@&\xc0H\xbd\x08\xf6\xa8\xc5\x14\xc0'
p422
tp423
bsbsI34
g1
(g2
g3
Ntp424
Rp425
(dp426
g7
g8
((lp427
I32
aI33
aI35
aI31
atp428
Rp429
sg12
g13
(g14
(I0
tp430
g16
tp431
Rp432
(I1
(I2
tp433
g23
I00
S'(\xe5\xbe\x07\x87\x85\x1e\xc0\x0e\x80\xf4\x00\rd\x14\xc0'
p434
tp435
bsbsI35
g1
(g2
g3
Ntp436
Rp437
(dp438
g7
g8
((lp439
I34
aI36
aI47
atp440
Rp441
sg12
g13
(g14
(I0
tp442
g16
tp443
Rp444
(I1
(I2
tp445
g23
I00
S'\x04{KZ\xa4\xb3\x12\xc0d!\xf2\xda\x13\xbd\x12\xc0'
p446
tp447
bsbsI36
g1
(g2
g3
Ntp448
Rp449
(dp450
g7
g8
((lp451
I24
aI25
aI35
aI37
atp452
Rp453
sg12
g13
(g14
(I0
tp454
g16
tp455
Rp456
(I1
(I2
tp457
g23
I00
S'\x0c\xd4\x85\x13\x7f1\x12\xc0\xe8\xddv\x19\n \x00\xc0'
p458
tp459
bsbsI37
g1
(g2
g3
Ntp460
Rp461
(dp462
g7
g8
((lp463
I25
aI36
aI38
atp464
Rp465
sg12
g13
(g14
(I0
tp466
g16
tp467
Rp468
(I1
(I2
tp469
g23
I00
S'\xd0\xbd\xa7\xef\x91q\xf6\xbf\xdc+\x02\xa7T$\x01\xc0'
p470
tp471
bsbsI38
g1
(g2
g3
Ntp472
Rp473
(dp474
g7
g8
((lp475
I21
aI22
aI37
atp476
Rp477
sg12
g13
(g14
(I0
tp478
g16
tp479
Rp480
(I1
(I2
tp481
g23
I00
S'\xa0\xea%\xc6\xf8\xd5\xf8?\xdc+\x02\xa7T$\x01\xc0'
p482
tp483
bsbsI39
g1
(g2
g3
Ntp484
Rp485
(dp486
g7
g8
((lp487
I40
aI44
aI20
atp488
Rp489
sg12
g13
(g14
(I0
tp490
g16
tp491
Rp492
(I1
(I2
tp493
g23
I00
S"\x88N\xae0\xea'\x12@\xfa\x05\x8er.R\x1f\xc0"
p494
tp495
bsbsI40
g1
(g2
g3
Ntp496
Rp497
(dp498
g7
g8
((lp499
I41
aI42
aI43
aI39
atp500
Rp501
sg12
g13
(g14
(I0
tp502
g16
tp503
Rp504
(I1
(I2
tp505
g23
I00
S'\xa4\xb2\xd7H\x88R @\xb0\x16\x05\x0b\xdd\xf4\x1f\xc0'
p506
tp507
bsbsI41
g1
(g2
g3
Ntp508
Rp509
(dp510
g7
g8
((lp511
I40
aI42
aI43
atp512
Rp513
sg12
g13
(g14
(I0
tp514
g16
tp515
Rp516
(I1
(I2
tp517
g23
I00
S'\xe4H&\xf7\xfe1 @\x9c$\x16\x18!\xc7&\xc0'
p518
tp519
bsbsI42
g1
(g2
g3
Ntp520
Rp521
(dp522
g7
g8
((lp523
I40
aI41
aI43
atp524
Rp525
sg12
g13
(g14
(I0
tp526
g16
tp527
Rp528
(I1
(I2
tp529
g23
I00
S'\xf4\xfd\xdfM\xf0\x1a&@\x9c$\x16\x18!\xc7&\xc0'
p530
tp531
bsbsI43
g1
(g2
g3
Ntp532
Rp533
(dp534
g7
g8
((lp535
I40
aI41
aI42
atp536
Rp537
sg12
g13
(g14
(I0
tp538
g16
tp539
Rp540
(I1
(I2
tp541
g23
I00
S'8\x94.\xfcf\xfa%@\x93\xc8\x96z\n\\ \xc0'
p542
tp543
bsbsI44
g1
(g2
g3
Ntp544
Rp545
(dp546
g7
g8
((lp547
I45
aI39
atp548
Rp549
sg12
g13
(g14
(I0
tp550
g16
tp551
Rp552
(I1
(I2
tp553
g23
I00
S"\x88N\xae0\xea'\x12@\xa4}P\xd1\xfbD&\xc0"
p554
tp555
bsbsI45
g1
(g2
g3
Ntp556
Rp557
(dp558
g7
g8
((lp559
I44
aI46
atp560
Rp561
sg12
g13
(g14
(I0
tp562
g16
tp563
Rp564
(I1
(I2
tp565
g23
I00
S'\x00\xfc\xa6E\xe0\xbe\x9b?\xa4}P\xd1\xfbD&\xc0'
p566
tp567
bsbsI46
g1
(g2
g3
Ntp568
Rp569
(dp570
g7
g8
((lp571
I45
aI47
atp572
Rp573
sg12
g13
(g14
(I0
tp574
g16
tp575
Rp576
(I1
(I2
tp577
g23
I00
S'\x04{KZ\xa4\xb3\x12\xc0A\x9c\xda\xcb\xc9u&\xc0'
p578
tp579
bsbsI47
g1
(g2
g3
Ntp580
Rp581
(dp582
g7
g8
((lp583
I48
aI35
aI46
atp584
Rp585
sg12
g13
(g14
(I0
tp586
g16
tp587
Rp588
(I1
(I2
tp589
g23
I00
S'\xbc\x8b\xc2\xf2RV\x13\xc0\xb0\x16\x05\x0b\xdd\xf4\x1f\xc0'
p590
tp591
bsbsI48
g1
(g2
g3
Ntp592
Rp593
(dp594
g7
g8
((lp595
I49
aI50
aI51
aI47
atp596
Rp597
sg12
g13
(g14
(I0
tp598
g16
tp599
Rp600
(I1
(I2
tp601
g23
I00
S'\xd8\x9c\xfb\xe6Z\xaa\x1f\xc0\x17\xf53\xd7\xf7\x1a \xc0'
p602
tp603
bsbsI49
g1
(g2
g3
Ntp604
Rp605
(dp606
g7
g8
((lp607
I48
aI50
aI51
atp608
Rp609
sg12
g13
(g14
(I0
tp610
g16
tp611
Rp612
(I1
(I2
tp613
g23
I00
S"duC\xbaRW \xc0\x19\xf8x\xbb3\x08'\xc0"
p614
tp615
bsbsI50
g1
(g2
g3
Ntp616
Rp617
(dp618
g7
g8
((lp619
I48
aI49
aI51
atp620
Rp621
sg12
g13
(g14
(I0
tp622
g16
tp623
Rp624
(I1
(I2
tp625
g23
I00
S"\xea\xa4%\xfb{\x03'\xc0:C\xa0\x12\xef\xf7&\xc0"
p626
tp627
bsbsI51
g1
(g2
g3
Ntp628
Rp629
(dp630
g7
g8
((lp631
I48
aI49
aI50
atp632
Rp633
sg12
g13
(g14
(I0
tp634
g16
tp635
Rp636
(I1
(I2
tp637
g23
I00
S'\x8e\x1c\xea\xae$\xb2&\xc0\xd5^\xe5(\x81; \xc0'
p638
tp639
bsbsI52
g1
(g2
g3
Ntp640
Rp641
(dp642
g7
g8
((lp643
I0
aI1
aI2
atp644
Rp645
sg12
g13
(g14
(I0
tp646
g16
tp647
Rp648
(I1
(I2
tp649
g23
I00
S'\xf2\xfd_\xb4V\x81&\xc0\xc8\xe5\xdd\x00p1\x1e@'
p650
tp651
bsbsI53
g1
(g2
g3
Ntp652
Rp653
(dp654
g7
g8
((lp655
I4
aI5
atp656
Rp657
sg12
g13
(g14
(I0
tp658
g16
tp659
Rp660
(I1
(I2
tp661
g20
(S'f8'
p662
I0
I1
tp663
Rp664
(I3
S'<'
p665
NNNI-1
I-1
I0
tp666
bI00
S'\x80a\x18<\x81\x13\xd0\xbfr\x02\x17\x88\xc4\xa1%@'
p667
tp668
bsbs.