(dp0
S'uvstates'
p1
(lp2
(lp3
F0.0
aF0.0
aa(lp4
F0.0
aF0.0
aa(lp5
F0.0
aF0.0
aa(lp6
F0.0
aF0.0
aa(lp7
F0.0
aF0.0
aa(lp8
F0.0
aF0.0
aa(lp9
F0.0
aF0.0
aa(lp10
F0.0
aF0.0
aasS'agents'
p11
(lp12
ccopy_reg
_reconstructor
p13
(cpyIA.agents
Robot
p14
c__builtin__
object
p15
Ntp16
Rp17
(dp18
S'radius'
p19
F0.3
sS'actions'
p20
(lp21
g13
(cpyIA.actions
Intend
p22
g15
Ntp23
Rp24
ag13
(cpyIA.actions
Say
p25
g15
Ntp26
Rp27
ag13
(cpyIA.actions
Nudge
p28
g15
Ntp29
Rp30
asbag13
(cpyIA.agents
Person
p31
g15
Ntp32
Rp33
(dp34
g19
F0.3
sg20
(lp35
sbag13
(g31
g15
Ntp36
Rp37
(dp38
g19
F0.3
sg20
(lp39
sbag13
(g31
g15
Ntp40
Rp41
(dp42
g19
F0.3
sg20
(lp43
sbag13
(g31
g15
Ntp44
Rp45
(dp46
g19
F0.3
sg20
(lp47
sbag13
(g31
g15
Ntp48
Rp49
(dp50
g19
F0.3
sg20
(lp51
sbag13
(g31
g15
Ntp52
Rp53
(dp54
g19
F0.3
sg20
(lp55
sbag13
(g31
g15
Ntp56
Rp57
(dp58
g19
F0.3
sg20
(lp59
sbasS'innerstates'
p60
(lp61
g13
(cpyIA.agents
Innerstate
p62
g15
Ntp63
Rp64
(dp65
S'permissivity'
p66
F1.0
sS'patience'
p67
I1
sS'goal'
p68
(lp69
cnumpy.core.multiarray
scalar
p70
(cnumpy
dtype
p71
(S'f8'
p72
I0
I1
tp73
Rp74
(I3
S'<'
p75
NNNI-1
I-1
I0
tp76
bS'\xd8\xf8/g\x87\x13\x15@'
p77
tp78
Rp79
ag70
(g74
S'|\x02\xde\xe7\xb7!\x14@'
p80
tp81
Rp82
asS'undertaking'
p83
Nsbag13
(g62
g15
Ntp84
Rp85
(dp86
g66
F0.5
sg67
I1
sg68
(lp87
g70
(g74
S'0\x03\xa6\x18\xc0I\x19\xc0'
p88
tp89
Rp90
ag70
(g74
S'\xa2;PT\x0e\xf6\x1b\xc0'
p91
tp92
Rp93
asg83
Nsbag13
(g62
g15
Ntp94
Rp95
(dp96
g66
F0.5
sg67
I1
sg68
(lp97
g70
(g74
S'\x90\x91\xebxz\xd4\x1b\xc0'
p98
tp99
Rp100
ag70
(g74
S'F"L6\x83\x92\x16\xc0'
p101
tp102
Rp103
asg83
Nsbag13
(g62
g15
Ntp104
Rp105
(dp106
g66
F0.5
sg67
I1
sg68
(lp107
g70
(g74
S'\xe0\xc7[\xa1\x14\xf3\x16\xc0'
p108
tp109
Rp110
ag70
(g74
S'XuG\x1f\x92\xc6\x16\xc0'
p111
tp112
Rp113
asg83
Nsbag13
(g62
g15
Ntp114
Rp115
(dp116
g66
F0.5
sg67
I1
sg68
(lp117
g70
(g74
S'0Y\x85\x06\xb6\x0b\xf4?'
p118
tp119
Rp120
ag70
(g74
S'\xe0f\xa0\xcax\xe8\xee?'
p121
tp122
Rp123
asg83
Nsbag13
(g62
g15
Ntp124
Rp125
(dp126
g66
F0.5
sg67
I1
sg68
(lp127
g70
(g74
S'@?\xde\n\x99\xc1\xe3?'
p128
tp129
Rp130
ag70
(g74
S'\x00\xd6\xa2\x88\x1d\x87\xc3\xbf'
p131
tp132
Rp133
asg83
Nsbag13
(g62
g15
Ntp134
Rp135
(dp136
g66
F0.5
sg67
I1
sg68
(lp137
g70
(g74
S'`F\xae\xe3cf\xfd?'
p138
tp139
Rp140
ag70
(g74
S'\x00\x85\x06\xb3\xa3\x88\xb3\xbf'
p141
tp142
Rp143
asg83
Nsbag13
(g62
g15
Ntp144
Rp145
(dp146
g66
F0.5
sg67
I1
sg68
(lp147
g70
(g74
S'pe\x108\x9d\xcb\x1f\xc0'
p148
tp149
Rp150
ag70
(g74
S'B\xad\n\xf4Sk\x19\xc0'
p151
tp152
Rp153
asg83
NsbasS'xystates'
p154
(lp155
(lp156
g70
(g74
S'\x80\x81b\xe7\x12R$\xc0'
p157
tp158
Rp159
ag70
(g74
S'#\xd3\x8d2\xf3\xb0$\xc0'
p160
tp161
Rp162
aa(lp163
g70
(g74
S'\x1c;i\xed\x81\xee\x1b\xc0'
p164
tp165
Rp166
ag70
(g74
S'F"L6\x83\x92\x16\xc0'
p167
tp168
Rp169
aa(lp170
g70
(g74
S'lq\xd9\x15\x1c\r\x17\xc0'
p171
tp172
Rp173
ag70
(g74
S'\xce\xcb\xc9\xaa\x8a\xac\x16\xc0'
p174
tp175
Rp176
aa(lp177
g70
(g74
S'0\x03\xa6\x18\xc0I\x19\xc0'
p178
tp179
Rp180
ag70
(g74
S'\xa2;PT\x0e\xf6\x1b\xc0'
p181
tp182
Rp183
aa(lp184
g70
(g74
S'\x90\xec\xa4\xb5\x81\xce\xfd?'
p185
tp186
Rp187
ag70
(g74
S"\x00F8'\x8d\r\xaa\xbf"
p188
tp189
Rp190
aa(lp191
g70
(g74
S'0Y\x85\x06\xb6\x0b\xf4?'
p192
tp193
Rp194
ag70
(g74
S'@\xb3\x8dn\xb4\xb8\xef?'
p195
tp196
Rp197
aa(lp198
g70
(g74
S'\xa0\x8b\xcb\xae\xd4\x91\xe4?'
p199
tp200
Rp201
ag70
(g74
S'\x80\xa4\xed\xf8.F\xc0\xbf'
p202
tp203
Rp204
aa(lp205
g70
(g74
S'\xf8\x0e\x8e\xac\xa4\xe5\x1f\xc0'
p206
tp207
Rp208
ag70
(g74
S'0Z\x0f\x0bE7\x19\xc0'
p209
tp210
Rp211
aas.