(dp0
S'uvstates'
p1
(lp2
(lp3
F0.0
aF0.0
aa(lp4
F0.0
aF0.0
aasS'agents'
p5
(lp6
ccopy_reg
_reconstructor
p7
(cpyIA.agents
Robot
p8
c__builtin__
object
p9
Ntp10
Rp11
(dp12
S'radius'
p13
F0.3
sS'actions'
p14
(lp15
g7
(cpyIA.actions
Intend
p16
g9
Ntp17
Rp18
ag7
(cpyIA.actions
Say
p19
g9
Ntp20
Rp21
ag7
(cpyIA.actions
Crawl
p22
g9
Ntp23
Rp24
ag7
(cpyIA.actions
Nudge
p25
g9
Ntp26
Rp27
asbag7
(cpyIA.agents
Person
p28
g9
Ntp29
Rp30
(dp31
g13
F0.3
sg14
(lp32
sbasS'innerstates'
p33
(lp34
g7
(cpyIA.agents
Innerstate
p35
g9
Ntp36
Rp37
(dp38
S'permissivity'
p39
F1.0
sS'patience'
p40
I1
sS'perceptivity'
p41
F0.9
sS'goal'
p42
(lp43
cnumpy.core.multiarray
scalar
p44
(cnumpy
dtype
p45
(S'f8'
p46
I0
I1
tp47
Rp48
(I3
S'<'
p49
NNNI-1
I-1
I0
tp50
bS'\xb8(T\x1e\xd5\xd1\x00\xc0'
p51
tp52
Rp53
ag44
(g48
S"r\x0e\xd8\xa9\x9e\x07'\xc0"
p54
tp55
Rp56
asS'undertaking'
p57
Nsbag7
(g35
g9
Ntp58
Rp59
(dp60
g39
F0.0
sg40
I1
sg41
F0.9
sg42
(lp61
g44
(g48
S'\xc4\x15\x9c\xf1wI\x1f\xc0'
p62
tp63
Rp64
ag44
(g48
S't\xc6\x8b\xa3-\xff!\xc0'
p65
tp66
Rp67
asg57
NsbasS'xystates'
p68
(lp69
(lp70
g44
(g48
S"A\xe1__\xe77'\xc0"
p71
tp72
Rp73
ag44
(g48
S'\xf1N\xdd\xb9\xf5;!\xc0'
p74
tp75
Rp76
aa(lp77
g44
(g48
S'\xc4\x15\x9c\xf1wI\x1f\xc0'
p78
tp79
Rp80
ag44
(g48
S'9\x9b\xca]1\x0c"\xc0'
p81
tp82
Rp83
aas.