(dp0
S'uvstates'
p1
(lp2
(lp3
F0.0
aF0.0
aa(lp4
F0.0
aF0.0
aa(lp5
F0.0
aF0.0
aa(lp6
F0.0
aF0.0
aa(lp7
F0.0
aF0.0
aa(lp8
F0.0
aF0.0
aa(lp9
F0.0
aF0.0
aa(lp10
F0.0
aF0.0
aa(lp11
F0.0
aF0.0
aa(lp12
F0.0
aF0.0
aa(lp13
F0.0
aF0.0
aa(lp14
F0.0
aF0.0
aa(lp15
F0.0
aF0.0
aa(lp16
F0.0
aF0.0
aa(lp17
F0.0
aF0.0
aasS'agents'
p18
(lp19
ccopy_reg
_reconstructor
p20
(cpyIA.agents
Robot
p21
c__builtin__
object
p22
Ntp23
Rp24
(dp25
S'radius'
p26
F0.3
sS'actions'
p27
(lp28
g20
(cpyIA.actions
Intend
p29
g22
Ntp30
Rp31
ag20
(cpyIA.actions
Say
p32
g22
Ntp33
Rp34
ag20
(cpyIA.actions
Nudge
p35
g22
Ntp36
Rp37
asbag20
(cpyIA.agents
Person
p38
g22
Ntp39
Rp40
(dp41
g26
F0.3
sg27
(lp42
sbag20
(g38
g22
Ntp43
Rp44
(dp45
g26
F0.3
sg27
(lp46
sbag20
(g38
g22
Ntp47
Rp48
(dp49
g26
F0.3
sg27
(lp50
sbag20
(g38
g22
Ntp51
Rp52
(dp53
g26
F0.3
sg27
(lp54
sbag20
(g38
g22
Ntp55
Rp56
(dp57
g26
F0.3
sg27
(lp58
sbag20
(g38
g22
Ntp59
Rp60
(dp61
g26
F0.3
sg27
(lp62
sbag20
(g38
g22
Ntp63
Rp64
(dp65
g26
F0.3
sg27
(lp66
sbag20
(g38
g22
Ntp67
Rp68
(dp69
g26
F0.3
sg27
(lp70
sbag20
(g38
g22
Ntp71
Rp72
(dp73
g26
F0.3
sg27
(lp74
sbag20
(g38
g22
Ntp75
Rp76
(dp77
g26
F0.3
sg27
(lp78
sbag20
(g38
g22
Ntp79
Rp80
(dp81
g26
F0.3
sg27
(lp82
sbag20
(g38
g22
Ntp83
Rp84
(dp85
g26
F0.3
sg27
(lp86
sbag20
(g38
g22
Ntp87
Rp88
(dp89
g26
F0.3
sg27
(lp90
sbag20
(g38
g22
Ntp91
Rp92
(dp93
g26
F0.3
sg27
(lp94
sbasS'innerstates'
p95
(lp96
g20
(cpyIA.agents
Innerstate
p97
g22
Ntp98
Rp99
(dp100
S'permissivity'
p101
F0.5
sS'patience'
p102
I1
sS'perceptivity'
p103
F0.9
sS'goal'
p104
(lp105
cnumpy.core.multiarray
scalar
p106
(cnumpy
dtype
p107
(S'f8'
p108
I0
I1
tp109
Rp110
(I3
S'<'
p111
NNNI-1
I-1
I0
tp112
bS'\x8cSm\xc0\xdd\xfd1\xc0'
p113
tp114
Rp115
ag106
(g110
S'\x00P3\xf40\xc3\xcd\xbf'
p116
tp117
Rp118
asS'undertaking'
p119
Nsbag20
(g97
g22
Ntp120
Rp121
(dp122
g101
F0.5
sg102
I1
sg103
F0.9
sg104
(lp123
g106
(g110
S'\x80\xd7I\x11<\xea\xe4?'
p124
tp125
Rp126
ag106
(g110
S'`\xb9(\xe5\x0eD\xe2\xbf'
p127
tp128
Rp129
asg119
Nsbag20
(g97
g22
Ntp130
Rp131
(dp132
g101
F0.5
sg102
I1
sg103
F0.9
sg104
(lp133
g106
(g110
S'\xf6\xad\x0e^V\xc4)\xc0'
p134
tp135
Rp136
ag106
(g110
S'\xb8Z\xe5\x1c,a\x03@'
p137
tp138
Rp139
asg119
Nsbag20
(g97
g22
Ntp140
Rp141
(dp142
g101
F0.5
sg102
I1
sg103
F0.9
sg104
(lp143
g106
(g110
S'\xc0\x0b\n\xa4\xc5\xa7\xde\xbf'
p144
tp145
Rp146
ag106
(g110
S'\xe0\x8d\xe7?\xf7 \xe3\xbf'
p147
tp148
Rp149
asg119
Nsbag20
(g97
g22
Ntp150
Rp151
(dp152
g101
F0.5
sg102
I1
sg103
F0.9
sg104
(lp153
g106
(g110
S'\x80=r\x95\xd9n\xcc?'
p154
tp155
Rp156
ag106
(g110
S'\xc0V\xe1\x9a\xc9k\xd4?'
p157
tp158
Rp159
asg119
Nsbag20
(g97
g22
Ntp160
Rp161
(dp162
g101
F0.5
sg102
I1
sg103
F0.9
sg104
(lp163
g106
(g110
S'\xb8\xd1[\x0c\x04r\x0f\xc0'
p164
tp165
Rp166
ag106
(g110
S'\x00\xca\x1e\x15\x04\\\x18@'
p167
tp168
Rp169
asg119
Nsbag20
(g97
g22
Ntp170
Rp171
(dp172
g101
F0.5
sg102
I1
sg103
F0.9
sg104
(lp173
g106
(g110
S'\xe0\xb0\x8fK\xb2\x99\xe0?'
p174
tp175
Rp176
ag106
(g110
S'\x9cp\x8b\xee-/"\xc0'
p177
tp178
Rp179
asg119
Nsbag20
(g97
g22
Ntp180
Rp181
(dp182
g101
F0.5
sg102
I1
sg103
F0.9
sg104
(lp183
g106
(g110
S'\xa4\x94\x98\xca\\](\xc0'
p184
tp185
Rp186
ag106
(g110
S'\xc0\xadc\xe5\xf8\xb1\xd2?'
p187
tp188
Rp189
asg119
Nsbag20
(g97
g22
Ntp190
Rp191
(dp192
g101
F0.5
sg102
I1
sg103
F0.9
sg104
(lp193
g106
(g110
S'\x97,\xd8Z:+2\xc0'
p194
tp195
Rp196
ag106
(g110
S".S`'\x9e\x99\x11\xc0"
p197
tp198
Rp199
asg119
Nsbag20
(g97
g22
Ntp200
Rp201
(dp202
g101
F0.5
sg102
I1
sg103
F0.9
sg104
(lp203
g106
(g110
S'\xae\xc0b\xd8\x87\xb6)\xc0'
p204
tp205
Rp206
ag106
(g110
S'p\xb4\xa1\x05\x81q\xe7\xbf'
p207
tp208
Rp209
asg119
Nsbag20
(g97
g22
Ntp210
Rp211
(dp212
g101
F0.5
sg102
I1
sg103
F0.9
sg104
(lp213
g106
(g110
S'\x08]%\xc4\xdb\xbc*\xc0'
p214
tp215
Rp216
ag106
(g110
S'\x80\x96\xd9\xe5\xcc\x8d\xb3?'
p217
tp218
Rp219
asg119
Nsbag20
(g97
g22
Ntp220
Rp221
(dp222
g101
F0.5
sg102
I1
sg103
F0.9
sg104
(lp223
g106
(g110
S'\x18\x0b\xb4;(\xaa\x0b@'
p224
tp225
Rp226
ag106
(g110
S'\x00\xd5>\xa5Fm\x12@'
p227
tp228
Rp229
asg119
Nsbag20
(g97
g22
Ntp230
Rp231
(dp232
g101
F0.5
sg102
I1
sg103
F0.9
sg104
(lp233
g106
(g110
S'\xf0\xe9\xbf\xce\xd6l\x0c\xc0'
p234
tp235
Rp236
ag106
(g110
S',\xe6\x9d\xbc\xe90\x1f\xc0'
p237
tp238
Rp239
asg119
Nsbag20
(g97
g22
Ntp240
Rp241
(dp242
g101
F0.5
sg102
I1
sg103
F0.9
sg104
(lp243
g106
(g110
S'\x08\xbf\xe7 b\x021\xc0'
p244
tp245
Rp246
ag106
(g110
S'D\xe8\x1b\x88\x8b\x95\x14@'
p247
tp248
Rp249
asg119
Nsbag20
(g97
g22
Ntp250
Rp251
(dp252
g101
F0.5
sg102
I1
sg103
F0.9
sg104
(lp253
g106
(g110
S'\x80\x85N\xa6\x9av\xe1?'
p254
tp255
Rp256
ag106
(g110
S'|\xbb\xdb\xd7\xf3\xf7!\xc0'
p257
tp258
Rp259
asg119
NsbasS'xystates'
p260
(lp261
(lp262
g106
(g110
S'\xc8\xe7{\x18\xa0\x07\x14@'
p263
tp264
Rp265
ag106
(g110
S'\x00\x05\x11\x01k\x8a\xd0\xbf'
p266
tp267
Rp268
aa(lp269
g106
(g110
S'\x00\xac\x08l$\xc7\xe5?'
p270
tp271
Rp272
ag106
(g110
S'p\x0b$P\xb0\xb7\xe5\xbf'
p273
tp274
Rp275
aa(lp276
g106
(g110
S'\x80\x8fm\x00{\xe2\xcf?'
p277
tp278
Rp279
ag106
(g110
S'\xc0QZ\xbb;\x99\xd9?'
p280
tp281
Rp282
aa(lp283
g106
(g110
S'`\xd5<M=^\xe5\xbf'
p284
tp285
Rp286
ag106
(g110
S'\xe0\x8d\xe7?\xf7 \xe3\xbf'
p287
tp288
Rp289
aa(lp290
g106
(g110
S'\x98\x1c\xac\xf5\xc9:\x0f\xc0'
p291
tp292
Rp293
ag106
(g110
S'p\xef\xc6\tg@\x18@'
p294
tp295
Rp296
aa(lp297
g106
(g110
S'\x80\x85N\xa6\x9av\xe1?'
p298
tp299
Rp300
ag106
(g110
S'\x0c\x963\xe3\x90\x13"\xc0'
p301
tp302
Rp303
aa(lp304
g106
(g110
S'P\t\xcf\x12\x85\x12\r\xc0'
p305
tp306
Rp307
ag106
(g110
S'\xe0\xe7A\x14\xd9x\x06\xc0'
p308
tp309
Rp310
aa(lp311
g106
(g110
S'\xf6\xad\x0e^V\xc4)\xc0'
p312
tp313
Rp314
ag106
(g110
S'\xb8Z\xe5\x1c,a\x03@'
p315
tp316
Rp317
aa(lp318
g106
(g110
S'\xa4\x94\x98\xca\\](\xc0'
p319
tp320
Rp321
ag106
(g110
S'\xc0\xadc\xe5\xf8\xb1\xd2?'
p322
tp323
Rp324
aa(lp325
g106
(g110
S'f\xd3\xb6R\xb9\xa8)\xc0'
p326
tp327
Rp328
ag106
(g110
S'\xf0\x88``iN\xe8\xbf'
p329
tp330
Rp331
aa(lp332
g106
(g110
S'\x997}\xcfx\xd8*\xc0'
p333
tp334
Rp335
ag106
(g110
S'\xa0\x04\xe6/(\xf8\xd0?'
p336
tp337
Rp338
aa(lp339
g106
(g110
S'\x97,\xd8Z:+2\xc0'
p340
tp341
Rp342
ag106
(g110
S".S`'\x9e\x99\x11\xc0"
p343
tp344
Rp345
aa(lp346
g106
(g110
S'\xf8U\x04%\xeer\x0b@'
p347
tp348
Rp349
ag106
(g110
S'\x90\xaf\x96\xb0\xe3\x88\x12@'
p350
tp351
Rp352
aa(lp353
g106
(g110
S'\xf0\xe9\xbf\xce\xd6l\x0c\xc0'
p354
tp355
Rp356
ag106
(g110
S',\xe6\x9d\xbc\xe90\x1f\xc0'
p357
tp358
Rp359
aa(lp360
g106
(g110
S'\x08\xbf\xe7 b\x021\xc0'
p361
tp362
Rp363
ag106
(g110
S'D\xe8\x1b\x88\x8b\x95\x14@'
p364
tp365
Rp366
aas.