(dp0
S'uvstates'
p1
(lp2
(lp3
F0.0
aF0.0
aa(lp4
F0.0
aF0.0
aa(lp5
F0.0
aF0.0
aa(lp6
F0.0
aF0.0
aa(lp7
F0.0
aF0.0
aa(lp8
F0.0
aF0.0
aa(lp9
F0.0
aF0.0
aa(lp10
F0.0
aF0.0
aa(lp11
F0.0
aF0.0
aa(lp12
F0.0
aF0.0
aa(lp13
F0.0
aF0.0
aa(lp14
F0.0
aF0.0
aasS'agents'
p15
(lp16
ccopy_reg
_reconstructor
p17
(cpyIA.agents
Robot
p18
c__builtin__
object
p19
Ntp20
Rp21
(dp22
S'radius'
p23
F0.3
sS'actions'
p24
(lp25
g17
(cpyIA.actions
Intend
p26
g19
Ntp27
Rp28
ag17
(cpyIA.actions
Say
p29
g19
Ntp30
Rp31
ag17
(cpyIA.actions
Nudge
p32
g19
Ntp33
Rp34
asbag17
(cpyIA.agents
Person
p35
g19
Ntp36
Rp37
(dp38
g23
F0.3
sg24
(lp39
sbag17
(g35
g19
Ntp40
Rp41
(dp42
g23
F0.3
sg24
(lp43
sbag17
(g35
g19
Ntp44
Rp45
(dp46
g23
F0.3
sg24
(lp47
sbag17
(g35
g19
Ntp48
Rp49
(dp50
g23
F0.3
sg24
(lp51
sbag17
(g35
g19
Ntp52
Rp53
(dp54
g23
F0.3
sg24
(lp55
sbag17
(g35
g19
Ntp56
Rp57
(dp58
g23
F0.3
sg24
(lp59
sbag17
(g35
g19
Ntp60
Rp61
(dp62
g23
F0.3
sg24
(lp63
sbag17
(g35
g19
Ntp64
Rp65
(dp66
g23
F0.3
sg24
(lp67
sbag17
(g35
g19
Ntp68
Rp69
(dp70
g23
F0.3
sg24
(lp71
sbag17
(g35
g19
Ntp72
Rp73
(dp74
g23
F0.3
sg24
(lp75
sbag17
(g35
g19
Ntp76
Rp77
(dp78
g23
F0.3
sg24
(lp79
sbasS'innerstates'
p80
(lp81
g17
(cpyIA.agents
Innerstate
p82
g19
Ntp83
Rp84
(dp85
S'permissivity'
p86
F0.5
sS'patience'
p87
I1
sS'perceptivity'
p88
F0.9
sS'goal'
p89
(lp90
cnumpy.core.multiarray
scalar
p91
(cnumpy
dtype
p92
(S'f8'
p93
I0
I1
tp94
Rp95
(I3
S'<'
p96
NNNI-1
I-1
I0
tp97
bS'\x8cSm\xc0\xdd\xfd1\xc0'
p98
tp99
Rp100
ag91
(g95
S'\x00P3\xf40\xc3\xcd\xbf'
p101
tp102
Rp103
asS'undertaking'
p104
Nsbag17
(g82
g19
Ntp105
Rp106
(dp107
g86
F0.5
sg87
I1
sg88
F0.9
sg89
(lp108
g91
(g95
S'\x00\xe0\xab\xa0\xe3\xa4i?'
p109
tp110
Rp111
ag91
(g95
S'\xd0pFN\xa6\xbf\xe9?'
p112
tp113
Rp114
asg104
Nsbag17
(g82
g19
Ntp115
Rp116
(dp117
g86
F0.5
sg87
I1
sg88
F0.9
sg89
(lp118
g91
(g95
S'\x00\xbb\x9dp\x05\xb7\xb4?'
p119
tp120
Rp121
ag91
(g95
S'\x00b\x08\x88=3\xd2\xbf'
p122
tp123
Rp124
asg104
Nsbag17
(g82
g19
Ntp125
Rp126
(dp127
g86
F0.5
sg87
I1
sg88
F0.9
sg89
(lp128
g91
(g95
S'@\xcc)\xba\xec\xab\xf9\xbf'
p129
tp130
Rp131
ag91
(g95
S'@\xd6\xe5\xa3\x87\xd6\xd8\xbf'
p132
tp133
Rp134
asg104
Nsbag17
(g82
g19
Ntp135
Rp136
(dp137
g86
F0.5
sg87
I1
sg88
F0.9
sg89
(lp138
g91
(g95
S'\x00T`\xfb\x8bX\x97\xbf'
p139
tp140
Rp141
ag91
(g95
S' \x8c\x80J%q\xfd\xbf'
p142
tp143
Rp144
asg104
Nsbag17
(g82
g19
Ntp145
Rp146
(dp147
g86
F0.5
sg87
I1
sg88
F0.9
sg89
(lp148
g91
(g95
S'@\xf2\x90\xb8\xf3\x86\xf8?'
p149
tp150
Rp151
ag91
(g95
S'\xc0\xdbU\xd8\xe6\x1f\xc7\xbf'
p152
tp153
Rp154
asg104
Nsbag17
(g82
g19
Ntp155
Rp156
(dp157
g86
F0.5
sg87
I1
sg88
F0.9
sg89
(lp158
g91
(g95
S'\xa0\x83=h\xcdB\xfc?'
p159
tp160
Rp161
ag91
(g95
S'P\n\x86\xb0\x1b\xf5\x04@'
p162
tp163
Rp164
asg104
Nsbag17
(g82
g19
Ntp165
Rp166
(dp167
g86
F0.5
sg87
I1
sg88
F0.9
sg89
(lp168
g91
(g95
S'\xc0of\x15u|\x13\xc0'
p169
tp170
Rp171
ag91
(g95
S'\x04\xa8?1\x8c\xe4!@'
p172
tp173
Rp174
asg104
Nsbag17
(g82
g19
Ntp175
Rp176
(dp177
g86
F0.5
sg87
I1
sg88
F0.9
sg89
(lp178
g91
(g95
S'\x98,2\x18\xac]3\xc0'
p179
tp180
Rp181
ag91
(g95
S'\xf6s\xc5\xdb\xeb\xc8\x18\xc0'
p182
tp183
Rp184
asg104
Nsbag17
(g82
g19
Ntp185
Rp186
(dp187
g86
F0.5
sg87
I1
sg88
F0.9
sg89
(lp188
g91
(g95
S'7\x8d/\x06\xb2\xd1)\xc0'
p189
tp190
Rp191
ag91
(g95
S'\xe0\xcd=\xd5xh\xeb?'
p192
tp193
Rp194
asg104
Nsbag17
(g82
g19
Ntp195
Rp196
(dp197
g86
F0.5
sg87
I1
sg88
F0.9
sg89
(lp198
g91
(g95
S'b\x1f%<-I*\xc0'
p199
tp200
Rp201
ag91
(g95
S'\x00[\x13]\xefU\xba\xbf'
p202
tp203
Rp204
asg104
Nsbag17
(g82
g19
Ntp205
Rp206
(dp207
g86
F0.5
sg87
I1
sg88
F0.9
sg89
(lp208
g91
(g95
S'\xe7\xcd\xa0\x7f\x96\x1d+\xc0'
p209
tp210
Rp211
ag91
(g95
S'\x90)\xff\xf7.i\xf1\xbf'
p212
tp213
Rp214
asg104
NsbasS'xystates'
p215
(lp216
(lp217
g91
(g95
S'\xc8\xe7{\x18\xa0\x07\x14@'
p218
tp219
Rp220
ag91
(g95
S'\x00\x05\x11\x01k\x8a\xd0\xbf'
p221
tp222
Rp223
aa(lp224
g91
(g95
S'\x00T`\xfb\x8bX\x97\xbf'
p225
tp226
Rp227
ag91
(g95
S'P\xc2\xca\n=\xeb\xe8?'
p228
tp229
Rp230
aa(lp231
g91
(g95
S'\x00\xbb\x9dp\x05\xb7\xb4?'
p232
tp233
Rp234
ag91
(g95
S'\x00b\x08\x88=3\xd2\xbf'
p235
tp236
Rp237
aa(lp238
g91
(g95
S'pF\xf0\xd4Nm\xf8\xbf'
p239
tp240
Rp241
ag91
(g95
S'\x00b\x08\x88=3\xd2\xbf'
p242
tp243
Rp244
aa(lp245
g91
(g95
S'\x00T`\xfb\x8bX\x97\xbf'
p246
tp247
Rp248
ag91
(g95
S'`c>\xecY\xdb\xfd\xbf'
p249
tp250
Rp251
aa(lp252
g91
(g95
S'@\xf2\x90\xb8\xf3\x86\xf8?'
p253
tp254
Rp255
ag91
(g95
S'\xc0\x95D\xe6\x8bq\xca\xbf'
p256
tp257
Rp258
aa(lp259
g91
(g95
S' 2\xb9\xab6\x17\xfd?'
p260
tp261
Rp262
ag91
(g95
S'P\n\x86\xb0\x1b\xf5\x04@'
p263
tp264
Rp265
aa(lp266
g91
(g95
S'\xc0of\x15u|\x13\xc0'
p267
tp268
Rp269
ag91
(g95
S'\x1c\xed\x07\x9dE\xd7!@'
p270
tp271
Rp272
aa(lp273
g91
(g95
S'<\x94\xde9\xc2I3\xc0'
p274
tp275
Rp276
ag91
(g95
S'\xf6s\xc5\xdb\xeb\xc8\x18\xc0'
p277
tp278
Rp279
aa(lp280
g91
(g95
S'\xad\xe6\x18!Q\x8f)\xc0'
p281
tp282
Rp283
ag91
(g95
S'\xe0\xcd=\xd5xh\xeb?'
p284
tp285
Rp286
aa(lp287
g91
(g95
S'zd\xed\xa7\xe6;*\xc0'
p288
tp289
Rp290
ag91
(g95
S'\x00[\x13]\xefU\xba\xbf'
p291
tp292
Rp293
aa(lp294
g91
(g95
S'\xe7\xcd\xa0\x7f\x96\x1d+\xc0'
p295
tp296
Rp297
ag91
(g95
S'\x90)\xff\xf7.i\xf1\xbf'
p298
tp299
Rp300
aas.